MPASM  5.45                               A.S   11-7-2015  20:34:43         PAGE  1


LOC  OBJECT CODE     LINE SOURCE TEXT
  VALUE


                      00002         list
                      00003 ;{
                      00004 ;FILE F1 = C:\PROJELER\RACAL\BCC398.BAS
                      00005 ;FILE F2 = C:\PROJELER\RACAL\BCC398.PRP
                      00006 ;}
                      00007 ;[Variable Listing]
                      00008 ;Katar,003E,DT_WORD,2
                      00009 ;Position,0040,DT_BYTE,1
                      00010 ;buffer,0041,DT_BYTE,1
                      00011 ;PortDurum,0042,DT_BYTE,1
                      00012 ;enuzun,0043,DT_BYTE,1
                      00013 ;Satir,0044,DT_BYTE,16
                      00014 ;Degerler,0054,DT_BYTE,90
                      00015 ;say,00D2,DT_BYTE,1
                      00016 ;Segments,00D3,DT_BYTE,7
                      00017 ;DecValue,00DA,DT_BYTE,1
                      00018 ;ResValue,00DB,DT_BYTE,1
                      00019 ;FrqDigits,00DC,DT_BYTE,7
                      00020 ;Channel,00E3,DT_BYTE,1
                      00021 ;Cmd,00E4,DT_BYTE,1
                      00022 ;LcdData,00E5,DT_BYTE,1
                      00023 ;DATAm,00E6,DT_BYTE,1
                      00024 ;don,00E7,DT_BYTE,1
                      00025 ;_High__Context_Store,00E8,DT_BYTE,6
                      00026 ;SDA,0007.4,DT_BIT
                      00027 ;SCL,0007.3,DT_BIT
                      00028 ;RBIF,000B.0,DT_BIT
                      00029 ;INTF,000B.1,DT_BIT
                      00030 ;T0IF,000B.2,DT_BIT
                      00031 ;RBIE,000B.3,DT_BIT
                      00032 ;INTE,000B.4,DT_BIT
                      00033 ;T0IE,000B.5,DT_BIT
                      00034 ;PEIE,000B.6,DT_BIT
                      00035 ;GIE,000B.7,DT_BIT
                      00036 ;INTEDG,0081.6,DT_BIT
                      00037 ;NOT_RBPU,0081.7,DT_BIT
                      00038 ;[End Listing]
                      00039 ;[TOTAL VARS] 170

                      00041 #define CONFIG_REQ 1
MESSAGE[308]: WARNING LEVEL SUPERSEDED BY COMMAND LINE VALUE. (2)
                      00042  LIST  P = 16F877, F = INHX8M, W = 2, X = ON, R = DEC, MM = ON, N = 0, C = 255
  00000000            00043 INDF equ 0X0000
  00000001            00044 TMR0 equ 0X0001
  00000002            00045 PCL equ 0X0002
  00000003            00046 STATUS equ 0X0003
  00000004            00047 FSR equ 0X0004
  00000005            00048 PORTA equ 0X0005
  00000006            00049 PORTB equ 0X0006
  00000007            00050 PORTC equ 0X0007
  00000008            00051 PORTD equ 0X0008
  00000009            00052 PORTE equ 0X0009
  0000000A            00053 PCLATH equ 0X000A
  0000000B            00054 INTCON equ 0X000B
  0000000C            00055 PIR1 equ 0X000C
  0000000D            00056 PIR2 equ 0X000D
  0000000E            00057 TMR1L equ 0X000E
  0000000F            00058 TMR1LH equ 0X000F
  0000000F            00059 TMR1H equ 0X000F
  00000010            00060 T1CON equ 0X0010
  00000011            00061 TMR2 equ 0X0011
  00000012            00062 T2CON equ 0X0012
  00000013            00063 SSPBUF equ 0X0013
  00000014            00064 SSPCON equ 0X0014
  00000015            00065 CCPR1L equ 0X0015
  00000016            00066 CCPR1LH equ 0X0016
  00000016            00067 CCPR1H equ 0X0016
  00000017            00068 CCP1CON equ 0X0017
  00000018            00069 RCSTA equ 0X0018
  00000019            00070 TXREG equ 0X0019
  0000001A            00071 RCREG equ 0X001A
  0000001B            00072 CCPR2L equ 0X001B
  0000001C            00073 CCPR2LH equ 0X001C
  0000001C            00074 CCPR2H equ 0X001C
  0000001D            00075 CCP2CON equ 0X001D
  0000001E            00076 ADRESLH equ 0X001E
  0000001E            00077 ADRESH equ 0X001E
  0000001F            00078 ADCON0 equ 0X001F
  00000081            00079 OPTION_REG equ 0X0081
  00000085            00080 TRISA equ 0X0085
  00000086            00081 TRISB equ 0X0086
  00000087            00082 TRISC equ 0X0087
  00000088            00083 TRISD equ 0X0088
  00000089            00084 TRISE equ 0X0089
  0000008C            00085 PIE1 equ 0X008C
  0000008D            00086 PIE2 equ 0X008D
  0000008E            00087 PCON equ 0X008E
  00000091            00088 SSPCON2 equ 0X0091
  00000092            00089 PR2 equ 0X0092
  00000093            00090 SSPADD equ 0X0093
  00000094            00091 SSPSTAT equ 0X0094
  00000098            00092 TXSTA equ 0X0098
  00000099            00093 SPBRG equ 0X0099
  0000009E            00094 ADRESL equ 0X009E
  0000009F            00095 ADCON1 equ 0X009F
  0000010C            00096 EEDATL equ 0X010C
  0000010C            00097 EEDATA equ 0X010C
  0000010C            00098 EEDAT equ 0X010C
  0000010D            00099 EEADR equ 0X010D
  0000010E            00100 EEDATLH equ 0X010E
  0000010E            00101 EEDATH equ 0X010E
  0000010F            00102 EEADRH equ 0X010F
  0000018C            00103 EECON1 equ 0X018C
  0000018D            00104 EECON2 equ 0X018D
  00000087            00105 _I2C_SCL_PORT=TRISC
  00000003            00106 _I2C_SCL_PIN=3
  00000087            00107 _I2C_SDA_PORT=TRISC
  00000004            00108 _I2C_SDA_PIN=4
  00000007            00109 IRP=7
  00000006            00110 RP1=6
  00000005            00111 RP0=5
  00000004            00112 NOT_TO=4
  00000003            00113 NOT_PD=3
  00000002            00114 Z=2
  00000001            00115 DC=1
  00000000            00116 C=0
  00000007            00117 GIE=7
  00000006            00118 PEIE=6
  00000005            00119 T0IE=5
  00000004            00120 INTE=4
  00000003            00121 RBIE=3
  00000002            00122 T0IF=2
  00000001            00123 INTF=1
  00000000            00124 RBIF=0
  00000007            00125 PSPIF=7
  00000006            00126 ADIF=6
  00000005            00127 RCIF=5
  00000005            00128 PP_RCIF=5
  00000004            00129 TXIF=4
  00000004            00130 PP_TXIF=4
  00000003            00131 SSPIF=3
  00000002            00132 CCP1IF=2
  00000001            00133 TMR2IF=1
  00000000            00134 TMR1IF=0
  00000004            00135 EEIF=4
  00000003            00136 BCLIF=3
  00000000            00137 CCP2IF=0
  00000005            00138 T1CKPS1=5
  00000004            00139 T1CKPS0=4
  00000003            00140 T1OSCEN=3
  00000002            00141 NOT_T1SYNC=2
  00000002            00142 T1INSYNC=2
  00000002            00143 T1SYNC=2
  00000001            00144 TMR1CS=1
  00000000            00145 TMR1ON=0
  00000006            00146 TOUTPS3=6
  00000005            00147 TOUTPS2=5
  00000004            00148 TOUTPS1=4
  00000003            00149 TOUTPS0=3
  00000002            00150 TMR2ON=2
  00000002            00151 PP_TMR2ON=2
  00000001            00152 T2CKPS1=1
  00000001            00153 PP_T2CKPS1=1
  00000000            00154 T2CKPS0=0
  00000000            00155 PP_T2CKPS0=0
  00000007            00156 WCOL=7
  00000006            00157 SSPOV=6
  00000005            00158 SSPEN=5
  00000004            00159 CKP=4
  00000003            00160 SSPM3=3
  00000002            00161 SSPM2=2
  00000001            00162 SSPM1=1
  00000000            00163 SSPM0=0
  00000005            00164 CCP1X=5
  00000004            00165 CCP1Y=4
  00000003            00166 CCP1M3=3
  00000002            00167 CCP1M2=2
  00000001            00168 CCP1M1=1
  00000000            00169 CCP1M0=0
  00000007            00170 SPEN=7
  00000006            00171 RX9=6
  00000006            00172 RC9=6
  00000006            00173 NOT_RC8=6
  00000006            00174 RC8_9=6
  00000005            00175 SREN=5
  00000004            00176 CREN=4
  00000004            00177 PP_CREN=4
  00000003            00178 ADDEN=3
  00000002            00179 FERR=2
  00000001            00180 OERR=1
  00000001            00181 PP_OERR=1
  00000000            00182 RX9D=0
  00000000            00183 RCD8=0
  00000005            00184 CCP2X=5
  00000004            00185 CCP2Y=4
  00000003            00186 CCP2M3=3
  00000002            00187 CCP2M2=2
  00000001            00188 CCP2M1=1
  00000000            00189 CCP2M0=0
  00000007            00190 ADCS1=7
  00000006            00191 ADCS0=6
  00000005            00192 CHS2=5
  00000004            00193 CHS1=4
  00000003            00194 CHS0=3
  00000002            00195 GO=2
  00000002            00196 NOT_DONE=2
  00000002            00197 GO_DONE=2
  00000002            00198 PP_GO_DONE=2
  00000000            00199 ADON=0
  00000007            00200 NOT_RBPU=7
  00000006            00201 INTEDG=6
  00000005            00202 T0CS=5
  00000004            00203 T0SE=4
  00000003            00204 PSA=3
  00000002            00205 PS2=2
  00000001            00206 PS1=1
  00000000            00207 PS0=0
  00000007            00208 IBF=7
  00000006            00209 OBF=6
  00000005            00210 IBOV=5
  00000004            00211 PSPMODE=4
  00000002            00212 TRISE2=2
  00000001            00213 TRISE1=1
  00000000            00214 TRISE0=0
  00000007            00215 PSPIE=7
  00000006            00216 ADIE=6
  00000005            00217 RCIE=5
  00000004            00218 TXIE=4
  00000003            00219 SSPIE=3
  00000002            00220 CCP1IE=2
  00000001            00221 TMR2IE=1
  00000000            00222 TMR1IE=0
  00000004            00223 EEIE=4
  00000003            00224 BCLIE=3
  00000000            00225 CCP2IE=0
  00000001            00226 NOT_POR=1
  00000000            00227 NOT_BO=0
  00000000            00228 NOT_BOR=0
  00000007            00229 GCEN=7
  00000006            00230 ACKSTAT=6
  00000006            00231 PP_ACKSTAT=6
  00000005            00232 ACKDT=5
  00000005            00233 PP_ACKDT=5
  00000004            00234 ACKEN=4
  00000004            00235 PP_ACKEN=4
  00000003            00236 RCEN=3
  00000003            00237 PP_RCEN=3
  00000002            00238 PEN=2
  00000002            00239 PP_PEN=2
  00000001            00240 RSEN=1
  00000001            00241 PP_RSEN=1
  00000000            00242 SEN=0
  00000000            00243 PP_SEN=0
  00000007            00244 SMP=7
  00000006            00245 CKE=6
  00000005            00246 I2C_DATA=5
  00000005            00247 NOT_A=5
  00000005            00248 NOT_ADDRESS=5
  00000005            00249 D_A=5
  00000005            00250 DATA_ADDRESS=5
  00000004            00251 I2C_STOP=4
  00000003            00252 I2C_START=3
  00000002            00253 I2C_READ=2
  00000002            00254 NOT_W=2
  00000002            00255 NOT_WRITE=2
  00000002            00256 R_W=2
  00000002            00257 PP_R_W=2
  00000002            00258 READ_WRITE=2
  00000001            00259 UA=1
  00000000            00260 BF=0
  00000000            00261 PP_BF=0
  00000007            00262 CSRC=7
  00000006            00263 TX9=6
  00000006            00264 NOT_TX8=6
  00000006            00265 TX8_9=6
  00000005            00266 TXEN=5
  00000004            00267 SYNC=4
  00000002            00268 BRGH=2
  00000001            00269 TRMT=1
  00000000            00270 TX9D=0
  00000000            00271 TXD8=0
  00000007            00272 ADFM=7
  00000003            00273 PCFG3=3
  00000002            00274 PCFG2=2
  00000001            00275 PCFG1=1
  00000000            00276 PCFG0=0
  00000007            00277 EEPGD=7
  00000007            00278 PP_EEPGD=7
  00000003            00279 WRERR=3
  00000003            00280 PP_WRERR=3
  00000002            00281 WREN=2
  00000002            00282 PP_WREN=2
  00000001            00283 WR=1
  00000001            00284 PP_WR=1
  00000000            00285 RD=0
  00000000            00286 PP_RD=0
  000001FF            00287   __MAXRAM 0X1FF
                      00288   __BADRAM 0X8F-0X90, 0X95-0X97, 0X9A-0X9D
                      00289   __BADRAM 0X105, 0X107-0X109
                      00290   __BADRAM 0X185, 0X187-0X189, 0X18E-0X18F
  00000FCF            00291 CP_ALL equ 0X0FCF
  00001FDF            00292 CP_HALF equ 0X1FDF
  00002FEF            00293 CP_UPPER_256 equ 0X2FEF
  00003FFF            00294 CP_OFF equ 0X3FFF
  000037FF            00295 DEBUG_ON equ 0X37FF
  00003FFF            00296 DEBUG_OFF equ 0X3FFF
  00003FFF            00297 WRTE_ON equ 0X3FFF
  00003FFF            00298 WRT_ENABLE_ON equ 0X3FFF
  00003DFF            00299 WRTE_OFF equ 0X3DFF
  00003DFF            00300 WRT_ENABLE_OFF equ 0X3DFF
  00003EFF            00301 CPD_ON equ 0X3EFF
  00003FFF            00302 CPD_OFF equ 0X3FFF
  00003FFF            00303 LVP_ON equ 0X3FFF
  00003F7F            00304 LVP_OFF equ 0X3F7F
  00003FFF            00305 BODEN_ON equ 0X3FFF
  00003FBF            00306 BODEN_OFF equ 0X3FBF
  00003FFF            00307 PWRTE_OFF equ 0X3FFF
  00003FF7            00308 PWRTE_ON equ 0X3FF7
  00003FFF            00309 WDT_ON equ 0X3FFF
  00003FFB            00310 WDT_OFF equ 0X3FFB
  00003FFC            00311 LP_OSC equ 0X3FFC
  00003FFD            00312 XT_OSC equ 0X3FFD
  00003FFE            00313 HS_OSC equ 0X3FFE
  00003FFF            00314 RC_OSC equ 0X3FFF
  00003FBF            00315 BOREN_OFF equ 0X3FBF
  00003FFF            00316 BOREN_ON equ 0X3FFF
  00003FFF            00317 FOSC_EXTRC equ 0X3FFF
  00003FFE            00318 FOSC_HS equ 0X3FFE
  00003FFC            00319 FOSC_LP equ 0X3FFC
  00003FFD            00320 FOSC_XT equ 0X3FFD
  00003FFB            00321 WDTE_OFF equ 0X3FFB
  00003FFF            00322 WDTE_ON equ 0X3FFF
  00003DFF            00323 WRT_OFF equ 0X3DFF
  00003FFF            00324 WRT_ON equ 0X3FFF

                      00328 #define __16F877 1
                      00329 #define XTAL 10
                      00330 #define _CORE 14
                      00331 #define _MAXRAM 368
                      00332 #define _RAM_END 0X0170
                      00333 #define _MAXMEM 8192
                      00334 #define _ADC 8
                      00335 #define _ADC_RES 10
                      00336 #define _EEPROM 256
                      00337 #define _PAGES 4
                      00338 #define _BANKS 3
                      00339 #define RAM_BANKS 4
                      00340 #define _USART 1
                      00341 #define _USB 0
                      00342 #define _FLASH 1
                      00343 #define _CWRITE_BLOCK 1
                      00344 #define BANK0_START 0X20
                      00345 #define BANK0_END 0X7B
                      00346 #define BANK1_START 0X00A0
                      00347 #define BANK1_END 0X00EF
                      00348 #define BANK2_START 0X0110
                      00349 #define BANK2_END 0X016F
                      00350 #define BANK3_START 0X0190
                      00351 #define BANK3_END 0X01EF
                      00352 #define _SYSTEM_VARIABLE_COUNT 30
  00000000            00353 ram_bank = 0
  00000000            00354 CURRENT@PAGE = 0
  00000000            00355 DEST@PAGE = 0
                      00356 #define LCD#DTPORT PORTD
                      00357 #define LCD#DTPIN 4
                      00358 #define LCD#RSPORT PORTD
                      00359 #define LCD#RSPIN 2
                      00360 #define LCD#ENPORT PORTD
                      00361 #define LCD#ENPIN 3
                      00362 #define LCD#INTERFACE 4
                      00363 #define LCD#LINES 4
                      00364 #define LCD#TYPE 0
                      00365 #define __INTERRUPTS_ENABLED 1
                      00367 f@call macro pDest
                      00368 if(pDest < 1)
                      00369 if((pDest & 2048) == 0)
                      00370         bcf 10,3
                      00371 else
                      00372         bsf 10,3
                      00373 endif
                      00374 if((pDest & 4096) == 0)
                      00375         bcf 10,4
                      00376 else
                      00377         bsf 10,4
                      00378 endif
                      00379 else
                      00380 if(pDest > $)
                      00381 if((pDest & 2048) == 0)
                      00382         bcf 10,3
                      00383 else
                      00384         bsf 10,3
                      00385 endif
                      00386 if((pDest & 4096) == 0)
                      00387         bcf 10,4
                      00388 else
                      00389         bsf 10,4
                      00390 endif
                      00391 else
                      00392 if((pDest & 6144) == 0)
                      00393         clrf 10
                      00394 else
                      00395 if((pDest & 2048) == 0)
                      00396         bcf 10,3
                      00397 else
                      00398         bsf 10,3
                      00399 endif
                      00400 if((pDest & 4096) == 0)
                      00401         bcf 10,4
                      00402 else
                      00403         bsf 10,4
                      00404 endif
                      00405 endif
                      00406 endif
                      00407 endif
                      00408         call pDest
                      00409         endm
                      00410 f@jump macro pDest
                      00411 if(pDest < 1)
                      00412 if((pDest & 2048) == 0)
                      00413         bcf 10,3
                      00414 else
                      00415         bsf 10,3
                      00416 endif
                      00417 if((pDest & 4096) == 0)
                      00418         bcf 10,4
                      00419 else
                      00420         bsf 10,4
                      00421 endif
                      00422 else
                      00423 if(pDest > $)
                      00424 if((pDest & 2048) == 0)
                      00425         bcf 10,3
                      00426 else
                      00427         bsf 10,3
                      00428 endif
                      00429 if((pDest & 4096) == 0)
                      00430         bcf 10,4
                      00431 else
                      00432         bsf 10,4
                      00433 endif
                      00434 else
                      00435 if((pDest & 6144) == 0)
                      00436         clrf 10
                      00437 else
                      00438 if((pDest & 2048) == 0)
                      00439         bcf 10,3
                      00440 else
                      00441         bsf 10,3
                      00442 endif
                      00443 if((pDest & 4096) == 0)
                      00444         bcf 10,4
                      00445 else
                      00446         bsf 10,4
                      00447 endif
                      00448 endif
                      00449 endif
                      00450 endif
                      00451         goto pDest
                      00452         endm
                      00453 set@page macro pDest
                      00454 if((pDest & 2048) == 0)
                      00455         bcf 10,3
                      00456 else
                      00457         bsf 10,3
                      00458 endif
                      00459 if((pDest & 4096) == 0)
                      00460         bcf 10,4
                      00461 else
                      00462         bsf 10,4
                      00463 endif
                      00464         endm
                      00465 s@b     macro pVarin
                      00466 if((pVarin & 384) == 0)
                      00467 if(ram_bank == 1)
                      00468         bcf 3,5
                      00469 endif
                      00470 if(ram_bank == 2)
                      00471         bcf 3,6
                      00472 endif
                      00473 if(ram_bank == 3)
                      00474         bcf 3,5
                      00475         bcf 3,6
                      00476 endif
                      00477 ram_bank = 0
                      00478 endif
                      00479 if((pVarin & 384) == 128)
                      00480 if(ram_bank == 0)
                      00481         bsf 3,5
                      00482 endif
                      00483 if(ram_bank == 2)
                      00484         bsf 3,5
                      00485         bcf 3,6
                      00486 endif
                      00487 if(ram_bank == 3)
                      00488         bcf 3,6
                      00489 endif
                      00490 ram_bank = 1
                      00491 endif
                      00492 if((pVarin & 384) == 256)
                      00493 if(ram_bank == 0)
                      00494         bsf 3,6
                      00495 endif
                      00496 if(ram_bank == 1)
                      00497         bcf 3,5
                      00498         bsf 3,6
                      00499 endif
                      00500 if(ram_bank == 3)
                      00501         bcf 3,5
                      00502 endif
                      00503 ram_bank = 2
                      00504 endif
                      00505 if((pVarin & 384) == 384)
                      00506 if(ram_bank == 0)
                      00507         bsf 3,5
                      00508         bsf 3,6
                      00509 endif
                      00510 if(ram_bank == 1)
                      00511         bsf 3,6
                      00512 endif
                      00513 if(ram_bank == 2)
                      00514         bsf 3,5
                      00515 endif
                      00516 ram_bank = 3
                      00517 endif
                      00518         endm
                      00519 r@b     macro
                      00520 if((ram_bank & 1) != 0)
                      00521         bcf 3,5
                      00522 endif
                      00523 if((ram_bank & 2) != 0)
                      00524         bcf 3,6
                      00525 endif
                      00526 ram_bank = 0
                      00527         endm
                      00528 jump macro pLabel
                      00529     goto pLabel
                      00530     endm
                      00531 wreg_byte macro pByteOut
                      00532     s@b pByteOut
                      00533     movwf pByteOut
                      00534     r@b
                      00535     endm
                      00536 wreg_bit macro pVarOut,pBitout
                      00537     s@b pVarOut
                      00538     andlw 1
                      00539     btfsc STATUS,2
                      00540     bcf pVarOut,pBitout
                      00541     btfss STATUS,2
                      00542     bsf pVarOut,pBitout
                      00543     r@b
                      00544     endm
                      00545 wreg_word macro pWordOut
                      00546     s@b pWordOut
                      00547     movwf pWordOut
                      00548     s@b pWordOut+1
                      00549     clrf pWordOut+1
                      00550     r@b
                      00551     endm
                      00552 wreg_dword macro pDwordOut
                      00553     s@b pDwordOut+3
                      00554     clrf pDwordOut+3
                      00555     s@b pDwordOut+2
                      00556     clrf pDwordOut+2
                      00557     s@b pDwordOut+1
                      00558     clrf pDwordOut+1
                      00559     s@b pDwordOut
                      00560     movwf pDwordOut
                      00561     r@b
                      00562     endm
                      00563 byte_wreg macro pByteIn
                      00564     s@b pByteIn
                      00565     movf pByteIn,W
                      00566     r@b
                      00567     endm
                      00568 num_SFR macro pNumIn,pSFROut
                      00570     s@b pSFROut
                      00571     movlw pNumIn
                      00572     movwf pSFROut
                      00573     endm
                      00574 NUM16_SFR macro pNumIn,pSFROut
                      00576     s@b pSFROut
                      00577     movlw (pNumIn & 255)
                      00578     movwf pSFROut
                      00579     s@b pSFROut + 1
                      00580     movlw ((pNumIn >> 8) & 255)
                      00581     movwf pSFROut + 1
                      00582     r@b
                      00583     endm
                      00584 num_wreg macro pNumIn
                      00585     movlw (pNumIn & 255)
                      00586     endm
                      00587 num_byte macro pNumIn,pByteOut
                      00588     s@b pByteOut
                      00589 if(pNumIn == 0)
                      00590     clrf pByteOut
                      00591 else
                      00592     movlw (pNumIn & 255)
                      00593     movwf pByteOut
                      00594 endif
                      00595     r@b
                      00596     endm
                      00597 num_bit macro pNumIn,pVarOut,pBitout
                      00598     s@b pVarOut
                      00599 if((pNumIn & 1) == 1)
                      00600     bsf pVarOut,pBitout
                      00601 else
                      00602     bcf pVarOut,pBitout
                      00603 endif
                      00604     r@b
                      00605     endm
                      00606 num_word macro pNumIn,pWordOut
                      00607 if((pNumIn & 255) == 0)
                      00608     s@b pWordOut
                      00609     clrf pWordOut
                      00610 else
                      00611     s@b pWordOut
                      00612     movlw low (pNumIn)
                      00613     movwf pWordOut
                      00614 endif
                      00615 if(((pNumIn >> 8) & 255) == 0)
                      00616     s@b pWordOut+1
                      00617     clrf pWordOut+1
                      00618 else
                      00619     s@b pWordOut+1
                      00620     movlw high (pNumIn)
                      00621     movwf pWordOut+1
                      00622 endif
                      00623     r@b
                      00624     endm
                      00625 num_dword macro pNumIn,pDwordOut
                      00626 if ((pNumIn >> 24 & 255) == 0)
                      00627     s@b pDwordOut+3
                      00628     clrf pDwordOut+3
                      00629 else
                      00630     s@b pDwordOut+3
                      00631     movlw ((pNumIn >> 24) & 255)
                      00632     movwf pDwordOut+3
                      00633 endif
                      00634 if( ((pNumIn >> 16) & 255) == 0)
                      00635     s@b pDwordOut+2
                      00636     clrf pDwordOut+2
                      00637 else
                      00638     s@b pDwordOut+2
                      00639     movlw ((pNumIn >> 16) & 255)
                      00640     movwf pDwordOut+2
                      00641 endif
                      00642 if( ((pNumIn >> 8) & 255) == 0)
                      00643     s@b pDwordOut+1
                      00644     clrf pDwordOut+1
                      00645 else
                      00646     s@b pDwordOut+1
                      00647     movlw high (pNumIn)
                      00648     movwf pDwordOut+1
                      00649 endif
                      00650 if((pNumIn & 255) == 0)
                      00651     s@b pDwordOut
                      00652     clrf pDwordOut
                      00653 else
                      00654     s@b pDwordOut
                      00655     movlw low (pNumIn)
                      00656     movwf pDwordOut
                      00657 endif
                      00658     r@b
                      00659     endm
                      00660 bit_wreg macro pVarin,pBitIn
                      00661     s@b pVarin
                      00662     clrw
                      00663     btfsc pVarin,pBitIn
                      00664     movlw 1
                      00665     r@b
                      00666     endm
                      00667 bit_byte macro pVarin,pBitIn,pByteOut
                      00668     s@b pVarin
                      00669     clrw
                      00670     btfsc pVarin,pBitIn
                      00671     movlw 1
                      00672     s@b pByteOut
                      00673     movwf pByteOut
                      00674     r@b
                      00675     endm
                      00676 bit_bit macro pVarin,pBitIn,pVarOut,pBitout
                      00677 if((pVarin & 65408) == (pVarOut & 65408))
                      00678     s@b pVarOut
                      00679     btfsc pVarin,pBitIn
                      00680     bsf pVarOut,pBitout
                      00681     btfss pVarin,pBitIn
                      00682     bcf pVarOut,pBitout
                      00683 else
                      00684     s@b pVarin
                      00685     clrdc
                      00686     btfsc pVarin,pBitIn
                      00687     setdc
                      00688     s@b pVarOut
                      00689     skpndc
                      00690     bsf pVarOut,pBitout
                      00691     skpdc
                      00692     bcf pVarOut,pBitout
                      00693 endif
                      00694     endm
                      00695 bit_word macro pVarin,pBitIn,pWordOut
                      00696     s@b pWordOut+1
                      00697     clrf pWordOut+1
                      00698     bit_byte pVarin,pBitIn,pWordOut
                      00699     endm
                      00700 bit_dword macro pVarin,pBitIn,pDwordOut
                      00701     s@b pDwordOut+3
                      00702     clrf pDwordOut+3
                      00703     s@b pDwordOut+2
                      00704     clrf pDwordOut+2
                      00705     s@b pDwordOut+1
                      00706     clrf pDwordOut+1
                      00707     bit_byte pVarin,pBitIn,pDwordOut
                      00708     endm
                      00709 word_wreg macro pWordIn
                      00710     byte_wreg pWordIn
                      00711     endm
                      00712 word_byte macro pWordIn,pByteOut
                      00713     byte_byte pWordIn,pByteOut
                      00714     endm
                      00715 word_bit macro pWordIn,pVarOut,pBitout
                      00716     byte_bit pWordIn, pVarOut, pBitout
                      00717     endm
                      00718 word_word macro pWordIn,pWordOut
                      00719     s@b pWordIn+1
                      00720     movf pWordIn+1,W
                      00721     s@b pWordOut+1
                      00722     movwf pWordOut+1
                      00723     byte_byte pWordIn,pWordOut
                      00724     endm
                      00725 word_dword macro pWordIn,pDwordOut
                      00726     s@b pDwordOut+3
                      00727     clrf pDwordOut+3
                      00728     s@b pDwordOut+2
                      00729     clrf pDwordOut+2
                      00730     byte_byte pWordIn+1,pDwordOut+1
                      00731     byte_byte pWordIn,pDwordOut
                      00732     endm
                      00733 byte_byte macro pByteIn,pByteOut
                      00734     s@b pByteIn
                      00735     movf pByteIn,W
                      00736     s@b pByteOut
                      00737     movwf pByteOut
                      00738     r@b
                      00739     endm
                      00740 byte_word macro pByteIn,pWordOut
                      00741     s@b pWordOut+1
                      00742     clrf pWordOut+1
                      00743     byte_byte pByteIn,pWordOut
                      00744     endm
                      00745 byte_dword macro pByteIn,pDwordOut
                      00746     s@b pDwordOut+3
                      00747     clrf pDwordOut+3
                      00748     s@b pDwordOut+2
                      00749     clrf pDwordOut+2
                      00750     s@b pDwordOut+1
                      00751     clrf pDwordOut+1
                      00752     byte_byte pByteIn,pDwordOut
                      00753     endm
                      00754     byte_bit macro pByteIn,pVarOut,pBitout
                      00755 if((pByteIn & 65408) == (pVarOut & 65408))
                      00756     s@b pByteIn
                      00757     btfsc pByteIn,0
                      00758     bsf pVarOut,pBitout
                      00759     btfss pByteIn,0
                      00760     bcf pVarOut,pBitout
                      00761 else
                      00762     s@b pByteIn
                      00763     rrf pByteIn,W
                      00764     s@b pVarOut
                      00765     skpnc
                      00766     bsf pVarOut,pBitout
                      00767     skpc
                      00768     bcf pVarOut,pBitout
                      00769 endif
                      00770     r@b
                      00771     endm
                      00772 dword_wreg macro pDwordIn
                      00773     byte_wreg pDwordIn
                      00774     endm
                      00775 dword_byte macro pDwordIn,pByteOut
                      00776     byte_byte pDwordIn,pByteOut
                      00777     endm
                      00778 dword_word macro pDwordIn,pWordOut
                      00779     s@b pDwordIn+1
                      00780     movf pDwordIn+1,W
                      00781     s@b pWordOut+1
                      00782     movwf pWordOut+1
                      00783     byte_byte pDwordIn,pWordOut
                      00784     endm
                      00785 dword_dword macro pDwordIn,pDwordOut
                      00786     byte_byte pDwordIn+3,pDwordOut+3
                      00787     byte_byte pDwordIn+2,pDwordOut+2
                      00788     byte_byte pDwordIn+1,pDwordOut+1
                      00789     byte_byte pDwordIn,pDwordOut
                      00790     endm
                      00791 dword_bit macro pDwordIn,pVarOut,pBitout
                      00792     byte_bit pDwordIn,pVarOut,pBitout
                      00793     endm
  0000                00794 variable CURRENT@PAGE = 0
  0000                00795 variable PDESTINATION@PAGE = 0
                      00796 FIND@PAGE macro pLabelIn
                      00797 local CURRENT_ADDR = $
                      00798 local DEST_ADDR = pLabelIn
                      00799 if((CURRENT_ADDR >= 0X1800) && (CURRENT_ADDR <= 0X2000))
                      00800     CURRENT@PAGE = 3
                      00801 endif
                      00802 if((CURRENT_ADDR >= 0X1000) && (CURRENT_ADDR <= 0X1800))
                      00803     CURRENT@PAGE = 2
                      00804 endif
                      00805 if((CURRENT_ADDR >= 0X0800) && (CURRENT_ADDR <= 0X1000))
                      00806     CURRENT@PAGE = 1
                      00807 endif
                      00808 if((CURRENT_ADDR >= 0) && (CURRENT_ADDR <= 0X0800))
                      00809     CURRENT@PAGE = 0
                      00810 endif
                      00811 if((DEST_ADDR >= 0X1800) && (DEST_ADDR <= 0X2000))
                      00812     PDESTINATION@PAGE = 3
                      00813 endif
                      00814 if((DEST_ADDR >= 0X1000) && (DEST_ADDR <= 0X1800))
                      00815     PDESTINATION@PAGE = 2
                      00816 endif
                      00817 if((DEST_ADDR >= 0X0800) && (DEST_ADDR <= 0X1000))
                      00818     PDESTINATION@PAGE = 1
                      00819 endif
                      00820 if((DEST_ADDR >= 0) && (DEST_ADDR <= 0X0800))
                      00821     PDESTINATION@PAGE = 0
                      00822 endif
                      00823     endm
                      00824 num_FSR macro pNumIn
                      00825     num_byte pNumIn, FSR
                      00826 if (((pNumIn >> 8) & 255) == 1)
                      00827     bsf STATUS,7
                      00828 else
                      00829     bcf STATUS,7
                      00830 endif
                      00831     endm
                      00832 label_word macro pLabelIn,pWordOut
                      00833     movlw (pLabelIn & 255)
                      00834     s@b pWordOut
                      00835     movwf pWordOut
                      00836     movlw ((pLabelIn >> 8) & 255)
                      00837     s@b pWordOut+1
                      00838     movwf pWordOut+1
                      00839     r@b
                      00840     endm
                      00841 wreg_sword macro pWordOut
                      00842     s@b pWordOut
                      00843     movwf pWordOut
                      00844     movlw 0
                      00845     btfsc pWordOut,7
                      00846     movlw 255
                      00847     s@b pWordOut+1
                      00848     movwf pWordOut+1
                      00849     r@b
                      00850     endm
                      00851 wreg_sdword macro pDwordOut
                      00852     s@b pDwordOut
                      00853     movwf pDwordOut
                      00854     movlw 0
                      00855     btfsc pDwordOut,7
                      00856     movlw 255
                      00857     s@b pDwordOut+1
                      00858     movwf pDwordOut+1
                      00859     s@b pDwordOut+2
                      00860     movwf pDwordOut+2
                      00861     s@b pDwordOut+3
                      00862     movwf pDwordOut+3
                      00863     r@b
                      00864     endm
                      00865 byte_sword macro pByteIn,pWordOut
                      00866     s@b pByteIn
                      00867     movf pByteIn,W
                      00868     s@b pWordOut
                      00869     movwf pWordOut
                      00870     movlw 0
                      00871     btfsc pWordOut,7
                      00872     movlw 255
                      00873     s@b pWordOut+1
                      00874     movwf pWordOut+1
                      00875     r@b
                      00876     endm
                      00877 byte_sdword macro pByteIn,pDwordOut
                      00878     s@b pByteIn
                      00879     movf pByteIn,W
                      00880     s@b pDwordOut
                      00881     movwf pDwordOut
                      00882     movlw 0
                      00883     btfsc pDwordOut,7
                      00884     movlw 255
                      00885     s@b pDwordOut+1
                      00886     movwf pDwordOut+1
                      00887     s@b pDwordOut+2
                      00888     movwf pDwordOut+2
                      00889     s@b pDwordOut+3
                      00890     movwf pDwordOut+3
                      00891     r@b
                      00892     endm
                      00893 word_sdword macro pWordIn,pDwordOut
                      00894     s@b pWordIn
                      00895     movf pWordIn,W
                      00896     s@b pDwordOut
                      00897     movwf pDwordOut
                      00898     s@b pWordIn+1
                      00899     movf pWordIn+1,W
                      00900     s@b pDwordOut+1
                      00901     movwf pDwordOut+1
                      00902     movlw 0
                      00903     btfsc pDwordOut+1,7
                      00904     movlw 255
                      00905     s@b pDwordOut+2
                      00906     movwf pDwordOut+2
                      00907     s@b pDwordOut+3
                      00908     movwf pDwordOut+3
                      00909     r@b
                      00910     endm
  00000020            00913 BPF = 32
  00000021            00914 BPFH = 33
  00000022            00915 CSTR#CT = 34
  00000023            00916 GEN = 35
  00000024            00917 GEN3H = 36
  00000025            00918 GEN4 = 37
  00000026            00919 GEN4H = 38
  00000027            00920 PBP#VAR0 = 39
  00000028            00921 PBP#VAR1 = 40
  00000029            00922 PBP#VAR2 = 41
  0000002A            00923 PBP#VAR3 = 42
  0000002B            00924 PBP#VAR4 = 43
  0000002C            00925 PBP#VAR5 = 44
  0000002D            00926 PBP#VAR6 = 45
  0000002E            00927 PP0 = 46
  0000002F            00928 PP0H = 47
  00000030            00929 PP1 = 48
  00000031            00930 PP1H = 49
  00000032            00931 PP2 = 50
  00000033            00932 PP2H = 51
  00000034            00933 PP3 = 52
  00000035            00934 PP3H = 53
  00000036            00935 PP4 = 54
  00000037            00936 PP5 = 55
  00000038            00937 PP6 = 56
  00000039            00938 PP6H = 57
  0000003A            00939 PP7 = 58
  0000003B            00940 PP7H = 59
  0000003C            00941 PP8 = 60
  0000003D            00942 PP8H = 61
  0000007C            00943 FSRSAVE = 124
  0000007D            00944 PSAVE = 125
  0000007E            00945 SSAVE = 126
  0000007F            00946 WSAVE = 127
  0000003E            00947 Katar = 62
  0000003F            00948 KatarH = 63
  00000040            00949 Position = 64
  00000041            00950 buffer = 65
  00000042            00951 PortDurum = 66
  00000043            00952 enuzun = 67
  00000044            00953 Satir = 68
  0044                00954 variable Satir#0=68,Satir#1=69,Satir#2=70,Satir#3=71
  0048                00955 variable Satir#4=72,Satir#5=73,Satir#6=74,Satir#7=75
  004C                00956 variable Satir#8=76,Satir#9=77,Satir#10=78,Satir#11=79
  0050                00957 variable Satir#12=80,Satir#13=81,Satir#14=82,Satir#15=83
  00000054            00958 Degerler = 84
  0054                00959 variable Degerler#0=84,Degerler#1=85,Degerler#2=86,Degerler#3=87
  0058                00960 variable Degerler#4=88,Degerler#5=89,Degerler#6=90,Degerler#7=91
  005C                00961 variable Degerler#8=92,Degerler#9=93,Degerler#10=94,Degerler#11=95
  0060                00962 variable Degerler#12=96,Degerler#13=97,Degerler#14=98,Degerler#15=99
  0064                00963 variable Degerler#16=100,Degerler#17=101,Degerler#18=102,Degerler#19=103
  0068                00964 variable Degerler#20=104,Degerler#21=105,Degerler#22=106,Degerler#23=107
  006C                00965 variable Degerler#24=108,Degerler#25=109,Degerler#26=110,Degerler#27=111
  0070                00966 variable Degerler#28=112,Degerler#29=113,Degerler#30=114,Degerler#31=115
  0074                00967 variable Degerler#32=116,Degerler#33=117,Degerler#34=118,Degerler#35=119
  0078                00968 variable Degerler#36=120,Degerler#37=121,Degerler#38=122,Degerler#39=123
  00A0                00969 variable Degerler#40=160,Degerler#41=161,Degerler#42=162,Degerler#43=163
  00A4                00970 variable Degerler#44=164,Degerler#45=165,Degerler#46=166,Degerler#47=167
  00A8                00971 variable Degerler#48=168,Degerler#49=169,Degerler#50=170,Degerler#51=171
  00AC                00972 variable Degerler#52=172,Degerler#53=173,Degerler#54=174,Degerler#55=175
  00B0                00973 variable Degerler#56=176,Degerler#57=177,Degerler#58=178,Degerler#59=179
  00B4                00974 variable Degerler#60=180,Degerler#61=181,Degerler#62=182,Degerler#63=183
  00B8                00975 variable Degerler#64=184,Degerler#65=185,Degerler#66=186,Degerler#67=187
  00BC                00976 variable Degerler#68=188,Degerler#69=189,Degerler#70=190,Degerler#71=191
  00C0                00977 variable Degerler#72=192,Degerler#73=193,Degerler#74=194,Degerler#75=195
  00C4                00978 variable Degerler#76=196,Degerler#77=197,Degerler#78=198,Degerler#79=199
  00C8                00979 variable Degerler#80=200,Degerler#81=201,Degerler#82=202,Degerler#83=203
  00CC                00980 variable Degerler#84=204,Degerler#85=205,Degerler#86=206,Degerler#87=207
  00D0                00981 variable Degerler#88=208,Degerler#89=209
  000000D2            00982 say = 210
  000000D3            00983 Segments = 211
  00D3                00984 variable Segments#0=211,Segments#1=212,Segments#2=213,Segments#3=214
  00D7                00985 variable Segments#4=215,Segments#5=216,Segments#6=217
  000000DA            00986 DecValue = 218
  000000DB            00987 ResValue = 219
  000000DC            00988 FrqDigits = 220
  00DC                00989 variable FrqDigits#0=220,FrqDigits#1=221,FrqDigits#2=222,FrqDigits#3=223
  00E0                00990 variable FrqDigits#4=224,FrqDigits#5=225,FrqDigits#6=226
  000000E3            00991 Channel = 227
  000000E4            00992 Cmd = 228
  000000E5            00993 LcdData = 229
  000000E6            00994 DATAm = 230
  000000E7            00995 don = 231
  000000E8            00996 _High__Context_Store = 232
  00E8                00997 variable _High__Context_Store#0=232,_High__Context_Store#1=233,_High__Context_Store#2=234,_High__Context_Store#3=235
  00EC                00998 variable _High__Context_Store#4=236,_High__Context_Store#5=237
                      00999 #define __LCD_DTPORT PORTD
                      01000 #define __LCD_RSPORT PORTD
                      01001 #define __LCD_ENPORT PORTD
                      01002 #define __SDA_PORT PORTC
                      01003 #define __SCL_PORT PORTC
                      01004 #define SDA PORTC,4
                      01005 #define SCL PORTC,3
                      01006 #define RBIF INTCON,0
                      01007 #define INTF INTCON,1
                      01008 #define T0IF INTCON,2
                      01009 #define RBIE INTCON,3
                      01010 #define INTE INTCON,4
                      01011 #define T0IE INTCON,5
                      01012 #define PEIE INTCON,6
                      01013 #define GIE INTCON,7
                      01014 #define INTEDG OPTION_REG,6
                      01015 #define NOT_RBPU OPTION_REG,7
                      01016 #define __XTAL 10
                      01017 #define __LCD_INTERFACE 4
                      01018 #define __LCD_DTPIN 4
                      01019 #define __LCD_RSPIN 2
                      01020 #define __LCD_ENPIN 3
                      01021 #define __LCD_LINES 4
                      01022 #define __SDA_PIN 4
                      01023 #define __SCL_PIN 3
                      01024 #define __HBUS_BITRATE 400
0000                  01025 proton#code#start
0000                  01026         org 0
0000   0000           01027         nop
0001   3000           01028         movlw (proton#main#start >> 8) & 255
0002   008A           01029         movwf PCLATH
0003   28E3           01030         goto proton#main#start
0004                  01031         org 4
0004   00FF           01032         movwf WSAVE
0005   0803           01033         movf STATUS,W
0006   0183           01034         clrf STATUS
0007   00FE           01035         movwf SSAVE
0008   0804           01036         movf FSR,W
0009   00FC           01037         movwf FSRSAVE
000A   080A           01038         movf PCLATH,W
000B   00FD           01039         movwf PSAVE
000C   3001           01040         movlw (myinterrupt >> 8) & 255
000D   008A           01041         movwf PCLATH
000E   2910           01042         goto myinterrupt
000F                  01043 FIND@ADDRESS
000F   1383           01044         bcf STATUS,7
0010   00B8           01045         movwf 56
0011   01B9           01046         clrf 57
0012   0DB9           01047         rlf 57,F
0013   3000           01048         movlw 0
0014   0239           01049         subwf 57,W
0015   307C           01050         movlw 124
0016   1903           01051         skpnz
0017   0238           01052         subwf 56,W
0018   1C03           01053         skpc
0019   2820           01054         goto $ + 7
001A   1BB5           01055         btfsc 53,7
001B   2820           01056         goto $ + 5
001C   3024           01057         movlw 36
001D   07B8           01058         addwf 56,F
001E   1803           01059         skpnc
001F   0AB9           01060         incf 57,F
0020   3000           01061         movlw 0
0021   0239           01062         subwf 57,W
0022   30F0           01063         movlw 240
0023   1903           01064         skpnz
0024   0238           01065         subwf 56,W
0025   1C03           01066         skpc
0026   282C           01067         goto $ + 6
0027   1783           01068         bsf STATUS,7
0028   3020           01069         movlw 32
0029   07B8           01070         addwf 56,F
002A   1803           01071         skpnc
002B   0AB9           01072         incf 57,F
002C   3001           01073         movlw 1
002D   0239           01074         subwf 57,W
002E   3070           01075         movlw 112
002F   1903           01076         skpnz
0030   0238           01077         subwf 56,W
0031   1C03           01078         skpc
0032   2835           01079         goto FA@EXT
0033   3020           01080         movlw 32
0034   07B8           01081         addwf 56,F
0035                  01082 FA@EXT
0035   0838           01083         movf 56,W
0036   0084           01084         movwf 4
0037   0008           01085         return
0038                  01086 LCD@CLS
0038   3080           01087         movlw 128
0039   00A1           01088         movwf 33
003A                  01089 CLS
003A   30FE           01090         movlw 254
003B   2096           01091         call _BYTE__SEND_
003C   3001           01092         movlw 1
003D   2096           01093         call _BYTE__SEND_
003E   3075           01094         movlw 117
003F   00AF           01095         movwf 47
0040   3030           01096         movlw 48
0041   28C3           01097         goto __DELAY_US_W_
0042                  01098 LCD@CRS
0042   01A1           01099         clrf 33
0043   17A1           01100         bsf 33,7
0044                  01101 CURS@
0044   00B7           01102         movwf 55
0045   30FE           01103         movlw 254
0046   2096           01104         call _BYTE__SEND_
0047   0837           01105         movf 55,W
0048   2896           01106         goto _BYTE__SEND_
0049                  01107 PRINT
0049   00B5           01108         movwf 53
004A   1188           01109         bcf PORTD,3
004B   1108           01110         bcf PORTD,2
004C   1683           01111         bsf STATUS,5
004D   1188           01112         bcf TRISD,3
004E   1108           01113         bcf TRISD,2
004F   300F           01114         movlw 15
0050   0588           01115         andwf TRISD,F
0051   1283           01116         bcf STATUS,5
0052   0835           01117         movf 53,W
0053   18A0           01118         btfsc 32,1
0054   2873           01119         goto PRT@1
0055   303E           01120         movlw 62
0056   00AF           01121         movwf 47
0057   3080           01122         movlw 128
0058   20C3           01123         call __DELAY_US_W_
0059   3033           01124         movlw 51
005A   00B4           01125         movwf 52
005B   2087           01126         call PR@LP
005C   3013           01127         movlw 19
005D   00AF           01128         movwf 47
005E   3088           01129         movlw 136
005F   20C3           01130         call __DELAY_US_W_
0060   2087           01131         call PR@LP
0061   3064           01132         movlw 100
0062   20C2           01133         call __DELAY_US_
0063   2087           01134         call PR@LP
0064   3064           01135         movlw 100
0065   20C2           01136         call __DELAY_US_
0066   3022           01137         movlw 34
0067   00B4           01138         movwf 52
0068   2087           01139         call PR@LP
0069   3028           01140         movlw 40
006A   2072           01141         call PRT@C
006B   300C           01142         movlw 12
006C   2072           01143         call PRT@C
006D   3006           01144         movlw 6
006E   2072           01145         call PRT@C
006F   14A0           01146         bsf 32,1
0070   0835           01147         movf 53,W
0071   2873           01148         goto PRT@1
0072                  01149 PRT@C
0072   1420           01150         bsf 32,0
0073                  01151 PRT@1
0073   00B4           01152         movwf 52
0074   1C20           01153         btfss 32,0
0075   2881           01154         goto PRIT@SKP
0076   1108           01155         bcf PORTD,2
0077   3C03           01156         sublw 3
0078   1C03           01157         skpc
0079   2886           01158         goto PRT@S
007A   2086           01159         call PRT@S
007B   3007           01160         movlw 7
007C   00AF           01161         movwf 47
007D   30D0           01162         movlw 208
007E   20C3           01163         call __DELAY_US_W_
007F   1403           01164         bsf 3,0
0080   0008           01165         return
0081                  01166 PRIT@SKP
0081   1420           01167         bsf 32,0
0082   3CFE           01168         sublw 254
0083   1903           01169         skpnz
0084   2894           01170         goto PR@EX
0085   1508           01171         bsf PORTD,2
0086                  01172 PRT@S
0086   1C20           01173         btfss 32,0
0087                  01174 PR@LP
0087   1020           01175         bcf 32,0
0088   1588           01176         bsf PORTD,3
0089   300F           01177         movlw 15
008A   0588           01178         andwf PORTD,F
008B   0834           01179         movf 52,W
008C   39F0           01180         andlw 240
008D   0488           01181         iorwf PORTD,F
008E   1188           01182         bcf PORTD,3
008F   0EB4           01183         swapf 52,F
0090   1820           01184         btfsc 32,0
0091   2887           01185         goto PR@LP
0092   3032           01186         movlw 50
0093   20C2           01187         call __DELAY_US_
0094                  01188 PR@EX
0094   0835           01189         movf 53,W
0095   28D7           01190         goto I@NT
0096                  01191 _BYTE__SEND_
0096   1BA1           01192         btfsc 33,7
0097   2849           01193         goto PRINT
0098   0008           01194         return
0099                  01195 C@STROUT
0099   00A5           01196         movwf 37
009A                  01197 C@STROUTW
009A   01A2           01198         clrf 34
009B                  01199 C@STROUTLP
009B   0825           01200         movf 37,W
009C   1703           01201         bsf STATUS,6
009D   008D           01202         movwf 269
009E   1303           01203         bcf STATUS,6
009F   0826           01204         movf 38,W
00A0   1703           01205         bsf STATUS,6
00A1   008F           01206         movwf 271
00A2   20AC           01207         call __CREAD_
00A3   1903           01208         skpnz
00A4   28D7           01209         goto I@NT
00A5   2096           01210         call _BYTE__SEND_
00A6   0AA5           01211         incf 37,F
00A7   1903           01212         skpnz
00A8   0AA6           01213         incf 38,F
00A9   0FA2           01214         incfsz 34,F
00AA   289B           01215         goto C@STROUTLP
00AB   28D7           01216         goto I@NT
00AC                  01217 __CREAD_
00AC   1683           01218         bsf STATUS,5
00AD   1703           01219         bsf STATUS,6
00AE   178C           01220         bsf 396,PP_EEPGD
00AF   140C           01221         bsf 396,PP_RD
00B0   0000           01222         nop
00B1   0000           01223         nop
00B2   1283           01224         bcf STATUS,5
00B3   080C           01225         movf 268,W
00B4   28D7           01226         goto I@NT
00B5                  01227 __DELAY_MS_
00B5   01B1           01228         clrf 49
00B6                  01229 __DELAY_MS_W_
00B6   00B0           01230         movwf 48
00B7                  01231 DLY@P
00B7   30FF           01232         movlw 255
00B8   07B0           01233         addwf 48,F
00B9   1C03           01234         skpc
00BA   07B1           01235         addwf 49,F
00BB   1C03           01236         skpc
00BC   28D7           01237         goto I@NT
00BD   3003           01238         movlw 3
00BE   00AF           01239         movwf 47
00BF   30E4           01240         movlw 228
00C0   20C3           01241         call __DELAY_US_W_
00C1   28B7           01242         goto DLY@P
00C2                  01243 __DELAY_US_
00C2   01AF           01244         clrf 47
00C3                  01245 __DELAY_US_W_
00C3   3EF6           01246         addlw 246
00C4   00AE           01247         movwf 46
00C5   09AF           01248         comf 47,F
00C6   1C03           01249         skpc
00C7   28CE           01250         goto $ + 7
00C8   30FE           01251         movlw 254
00C9   0000           01252         nop
00CA   07AE           01253         addwf 46,F
00CB   1803           01254         skpnc
00CC   28C9           01255         goto $ - 3
00CD   07AE           01256         addwf 46,F
00CE   0000           01257         nop
00CF   0FAF           01258         incfsz 47,F
00D0   28C8           01259         goto $ - 8
00D1   0000           01260         nop
00D2   182E           01261         btfsc 46,0
00D3   28D4           01262         goto $ + 1
00D4   182E           01263         btfsc 46,0
00D5   28D6           01264         goto $ + 1
00D6   0008           01265         return
00D7                  01266 I@NT
00D7   1383           01267         bcf STATUS,7
00D8   1283           01268         bcf STATUS,5
00D9   1303           01269         bcf STATUS,6
00DA   0008           01270         return
00DB                  01271 PUT@ARRAY
00DB   00B4           01272         movwf 52
00DC                  01273 PUT@ARRAYW
00DC   0825           01274         movf 37,W
00DD   00B5           01275         movwf 53
00DE   0726           01276         addwf 38,W
00DF   200F           01277         call FIND@ADDRESS
00E0   0834           01278         movf 52,W
00E1   0080           01279         movwf INDF
00E2   28D7           01280         goto I@NT
00E3                  01281 proton#main#start
00E3   0183           01282         clrf STATUS
00E4   01A0           01283         clrf 32

  000000E5            01286 F2_SOF equ $ ; BCC398.PRP
  000000E5            01287 F2_EOF equ $ ; BCC398.PRP
  000000E5            01288 F1_SOF equ $ ; BCC398.BAS
  000000E5            01289 F1_000005 equ $ ; IN [BCC398.BAS] ALL_DIGITAL = TRUE
00E5   3007           01290         movlw 7
00E6   1683           01291         bsf STATUS,5
  00000001            01292 ram_bank = 1
00E7   009F           01293         movwf ADCON1
  000000E8            01294 F1_000022 equ $ ; IN [BCC398.BAS] TRISD = 0
00E8   0188           01295         clrf TRISD
  000000E9            01296 F1_000023 equ $ ; IN [BCC398.BAS] TRISB = 255
00E9   30FF           01297         movlw 255
00EA   0086           01298         movwf TRISB
  000000EB            01299 F1_000038 equ $ ; IN [BCC398.BAS] INTEDG = 1
00EB   1701           01300         bsf OPTION_REG,6
  000000EC            01301 F1_000045 equ $ ; IN [BCC398.BAS] enuzun=0
00EC   1283           01302         bcf STATUS,5
  00000000            01303 ram_bank = 0
00ED   01C3           01304         clrf enuzun
  000000EE            01305 F1_000050 equ $ ; IN [BCC398.BAS] FOR say = 0 TO 80
00EE   1683           01306         bsf STATUS,5
  00000001            01307 ram_bank = 1
00EF   01D2           01308         clrf say
00F0                  01309 FR@LB2
00F0   1283           01310         bcf STATUS,5
  00000000            01311 ram_bank = 0
00F1   3051           01312         movlw 81
00F2   1683           01313         bsf STATUS,5
  00000001            01314 ram_bank = 1
00F3   0252           01315         subwf say,W
                      01316         set@page NX@LB3
00F6   1283           01317         bcf STATUS,5
  00000000            01318 ram_bank = 0
00F7   1803           01319         btfsc STATUS,0
00F8   290A           01320         goto NX@LB3
  000000F9            01321 F1_000051 equ $ ; IN [BCC398.BAS] Degerler[say] =8
00F9   1683           01322         bsf STATUS,5
  00000001            01323 ram_bank = 1
00FA   0852           01324         movf say,W
00FB   1283           01325         bcf STATUS,5
  00000000            01326 ram_bank = 0
00FC   00A6           01327         movwf GEN4H
00FD   3054           01328         movlw 84
00FE   00A5           01329         movwf GEN4
00FF   3008           01330         movlw 8
                      01331         f@call PUT@ARRAY
0102                  01332 CT@LB4
  00000102            01333 F1_000052 equ $ ; IN [BCC398.BAS] NEXT say
0102   3001           01334         movlw 1
0103   1683           01335         bsf STATUS,5
  00000001            01336 ram_bank = 1
0104   07D2           01337         addwf say,F
                      01338         set@page FR@LB2
0107   1283           01339         bcf STATUS,5
  00000000            01340 ram_bank = 0
0108   1C03           01341         btfss STATUS,0
0109   28F0           01342         goto FR@LB2
010A                  01343 NX@LB3
  0000010A            01344 F1_000054 equ $ ; IN [BCC398.BAS] Katar = 0
010A   01BF           01345         clrf KatarH
010B   01BE           01346         clrf Katar
  0000010C            01347 F1_000055 equ $ ; IN [BCC398.BAS] Position = 0
010C   01C0           01348         clrf Position
  0000010D            01349 F1_000058 equ $ ; IN [BCC398.BAS] goto Basla
                      01350         f@jump Basla
0110                  01351 myinterrupt
  00000000            01352 ram_bank = 0
  00000110            01353 F1_000062 equ $ ; IN [BCC398.BAS] CONTEXT SAVE
  00000000            01354 ram_bank = 0
0110   30E8           01355         movlw _High__Context_Store & 255
0111   0084           01356         movwf FSR
0112   1383           01357         bcf STATUS,7
0113   0825           01358         movf GEN4,W
0114   0080           01359         movwf INDF
0115   0A84           01360         incf FSR,F
0116   0826           01361         movf GEN4H,W
0117   0080           01362         movwf INDF
0118   0A84           01363         incf FSR,F
0119   0834           01364         movf PP3,W
011A   0080           01365         movwf INDF
011B   0A84           01366         incf FSR,F
011C   0835           01367         movf PP3H,W
011D   0080           01368         movwf INDF
011E   0A84           01369         incf FSR,F
011F   0838           01370         movf PP6,W
0120   0080           01371         movwf INDF
0121   0A84           01372         incf FSR,F
0122   0839           01373         movf PP6H,W
0123   0080           01374         movwf INDF
  00000124            01375 F1_000063 equ $ ; IN [BCC398.BAS] GIE = 0
0124   138B           01376         bcf INTCON,7
  00000125            01377 F1_000065 equ $ ; IN [BCC398.BAS] if INTF = 1 THEN
                      01378         set@page BC@LL6
0127   1C8B           01379         btfss INTCON,1
0128   2945           01380         goto BC@LL6
  00000129            01381 F1_000067 equ $ ; IN [BCC398.BAS] if PORTB.1 = 1 THEN
                      01382         set@page BC@LL8
012B   1C86           01383         btfss PORTB,1
012C   293A           01384         goto BC@LL8
  0000012D            01385 F1_000069 equ $ ; IN [BCC398.BAS] Degerler[Position] = PORTB.3
012D   0840           01386         movf Position,W
012E   00A6           01387         movwf GEN4H
012F   3054           01388         movlw 84
0130   00A5           01389         movwf GEN4
0131   3000           01390         movlw 0
0132   1986           01391         btfsc PORTB,3
0133   3001           01392         movlw 1
                      01393         f@call PUT@ARRAY
  00000136            01394 F1_000070 equ $ ; IN [BCC398.BAS] Position = Position + 1
0136   0AC0           01395         incf Position,F
                      01396         f@jump BC@LL9
013A                  01397 BC@LL8
  0000013A            01398 F1_000071 equ $ ; IN [BCC398.BAS] else
  0000013A            01399 F1_000072 equ $ ; IN [BCC398.BAS] if Position > 40 THEN Position = 0
013A   3029           01400         movlw 41
013B   0240           01401         subwf Position,W
                      01402         set@page BC@LL11
013E   1C03           01403         btfss STATUS,0
013F   2941           01404         goto BC@LL11
0140   01C0           01405         clrf Position
0141                  01406 BC@LL11
  00000141            01407 F1_000073 equ $ ; IN [BCC398.BAS] Katar = Katar + 1
0141   0ABE           01408         incf Katar,F
0142   1903           01409         btfsc STATUS,2
0143   0ABF           01410         incf KatarH,F
  00000144            01411 F1_000074 equ $ ; IN [BCC398.BAS] endif
0144                  01412 BC@LL9
  00000144            01413 F1_000075 equ $ ; IN [BCC398.BAS] INTF = 0
0144   108B           01414         bcf INTCON,1
  00000145            01415 F1_000076 equ $ ; IN [BCC398.BAS] endif
0145                  01416 BC@LL6
0145                  01417 Cikis
  00000145            01418 F1_000080 equ $ ; IN [BCC398.BAS] GIE = 1
0145   178B           01419         bsf INTCON,7
  00000146            01420 F1_000081 equ $ ; IN [BCC398.BAS] CONTEXT RESTORE
0146   30E8           01421         movlw _High__Context_Store & 255
0147   0084           01422         movwf FSR
0148   1383           01423         bcf STATUS,7
0149   0800           01424         movf INDF,W
014A   00A5           01425         movwf GEN4
014B   0A84           01426         incf FSR,F
014C   0800           01427         movf INDF,W
014D   00A6           01428         movwf GEN4H
014E   0A84           01429         incf FSR,F
014F   0800           01430         movf INDF,W
0150   00B4           01431         movwf PP3
0151   0A84           01432         incf FSR,F
0152   0800           01433         movf INDF,W
0153   00B5           01434         movwf PP3H
0154   0A84           01435         incf FSR,F
0155   0800           01436         movf INDF,W
0156   00B8           01437         movwf PP6
0157   0A84           01438         incf FSR,F
0158   0800           01439         movf INDF,W
0159   00B9           01440         movwf PP6H
015A   087D           01441         movf PSAVE,W
015B   008A           01442         movwf PCLATH
015C   087C           01443         movf FSRSAVE,W
015D   0084           01444         movwf FSR
015E   087E           01445         movf SSAVE,W
015F   0083           01446         movwf STATUS
0160   0EFF           01447         swapf WSAVE,F
0161   0E7F           01448         swapf WSAVE,W
0162   0009           01449         retfie
  00000163            01450 F1_000082 equ $ ; IN [BCC398.BAS] return
0163   0008           01451         return
0164                  01452 Basla
  00000164            01453 F1_000089 equ $ ; IN [BCC398.BAS] CLS
                      01454         f@call LCD@CLS
  00000166            01455 F1_000090 equ $ ; IN [BCC398.BAS] PRINT AT 1,1,"    RACAL BCC39B"
0166   3080           01456         movlw 128
0167   00A1           01457         movwf BPFH
                      01458         f@call LCD@CRS
016A   3007           01459         movlw ((STR@LB1 >> 8) & 255)
016B   00A6           01460         movwf GEN4H
016C   30F8           01461         movlw (STR@LB1 & 255)
                      01462         f@call C@STROUT
  0000016F            01463 F1_000091 equ $ ; IN [BCC398.BAS] PRINT AT 2,1," (C)2015 TA7W BARIS"
016F   3080           01464         movlw 128
0170   00A1           01465         movwf BPFH
0171   30C0           01466         movlw 192
                      01467         f@call LCD@CRS
0174   3008           01468         movlw ((STR@LB2 >> 8) & 255)
0175   00A6           01469         movwf GEN4H
0176   3009           01470         movlw (STR@LB2 & 255)
                      01471         f@call C@STROUT
  00000179            01472 F1_000092 equ $ ; IN [BCC398.BAS] PRINT AT 4,1,"  DISPLAY TESTING"
0179   3080           01473         movlw 128
017A   00A1           01474         movwf BPFH
017B   30D4           01475         movlw 212
                      01476         f@call LCD@CRS
017E   3008           01477         movlw ((STR@LB3 >> 8) & 255)
017F   00A6           01478         movwf GEN4H
0180   301D           01479         movlw (STR@LB3 & 255)
                      01480         f@call C@STROUT
  00000183            01481 F1_000093 equ $ ; IN [BCC398.BAS] DELAYMS 1000
0183   3003           01482         movlw 3
0184   00B1           01483         movwf PP1H
0185   30E8           01484         movlw 232
                      01485         f@call __DELAY_MS_W_
  00000188            01486 F1_000096 equ $ ; IN [BCC398.BAS] CLS
                      01487         f@call LCD@CLS
  0000018A            01488 F1_000097 equ $ ; IN [BCC398.BAS] INTE = 1
018A   160B           01489         bsf INTCON,4
  0000018B            01490 F1_000099 equ $ ; IN [BCC398.BAS] GIE = 1
018B   178B           01491         bsf INTCON,7
  0000018C            01492 F1_000105 equ $ ; IN [BCC398.BAS] ResValue=0
018C   1683           01493         bsf STATUS,5
  00000001            01494 ram_bank = 1
018D   01DB           01495         clrf ResValue
018E                  01496 LCDHazirla
018E   1283           01497         bcf STATUS,5
  00000000            01498 ram_bank = 0
  0000018F            01499 F1_000120 equ $ ; IN [BCC398.BAS] Cmd = $2A
018F   302A           01500         movlw 42
0190   1683           01501         bsf STATUS,5
  00000001            01502 ram_bank = 1
0191   00E4           01503         movwf Cmd
  00000192            01504 F1_000121 equ $ ; IN [BCC398.BAS] GOSUB KomutGonder
0192   1283           01505         bcf STATUS,5
  00000000            01506 ram_bank = 0
                      01507         f@call KomutGonder
  00000196            01508 F1_000122 equ $ ; IN [BCC398.BAS] DELAYMS 10
0196   300A           01509         movlw 10
                      01510         f@call __DELAY_MS_
  00000199            01511 F1_000123 equ $ ; IN [BCC398.BAS] Cmd = $71
0199   3071           01512         movlw 113
019A   1683           01513         bsf STATUS,5
  00000001            01514 ram_bank = 1
019B   00E4           01515         movwf Cmd
  0000019C            01516 F1_000124 equ $ ; IN [BCC398.BAS] GOSUB KomutGonder
019C   1283           01517         bcf STATUS,5
  00000000            01518 ram_bank = 0
                      01519         f@call KomutGonder
  000001A0            01520 F1_000125 equ $ ; IN [BCC398.BAS] DELAYMS 10
01A0   300A           01521         movlw 10
                      01522         f@call __DELAY_MS_
  000001A3            01523 F1_000126 equ $ ; IN [BCC398.BAS] Cmd = $5C
01A3   305C           01524         movlw 92
01A4   1683           01525         bsf STATUS,5
  00000001            01526 ram_bank = 1
01A5   00E4           01527         movwf Cmd
  000001A6            01528 F1_000127 equ $ ; IN [BCC398.BAS] GOSUB KomutGonder
01A6   1283           01529         bcf STATUS,5
  00000000            01530 ram_bank = 0
                      01531         f@call KomutGonder
  000001AA            01532 F1_000128 equ $ ; IN [BCC398.BAS] DELAYMS 10
01AA   300A           01533         movlw 10
                      01534         f@call __DELAY_MS_
  000001AD            01535 F1_000129 equ $ ; IN [BCC398.BAS] Cmd = $28
01AD   3028           01536         movlw 40
01AE   1683           01537         bsf STATUS,5
  00000001            01538 ram_bank = 1
01AF   00E4           01539         movwf Cmd
  000001B0            01540 F1_000130 equ $ ; IN [BCC398.BAS] GOSUB KomutGonder
01B0   1283           01541         bcf STATUS,5
  00000000            01542 ram_bank = 0
                      01543         f@call KomutGonder
  000001B4            01544 F1_000131 equ $ ; IN [BCC398.BAS] DELAYMS 10
01B4   300A           01545         movlw 10
                      01546         f@call __DELAY_MS_
  000001B7            01547 F1_000132 equ $ ; IN [BCC398.BAS] Cmd = $08
01B7   3008           01548         movlw 8
01B8   1683           01549         bsf STATUS,5
  00000001            01550 ram_bank = 1
01B9   00E4           01551         movwf Cmd
  000001BA            01552 F1_000133 equ $ ; IN [BCC398.BAS] GOSUB KomutGonder
01BA   1283           01553         bcf STATUS,5
  00000000            01554 ram_bank = 0
                      01555         f@call KomutGonder
  000001BE            01556 F1_000134 equ $ ; IN [BCC398.BAS] DELAYMS 10
01BE   300A           01557         movlw 10
                      01558         f@call __DELAY_MS_
  000001C1            01559 F1_000135 equ $ ; IN [BCC398.BAS] Cmd = $2A
01C1   302A           01560         movlw 42
01C2   1683           01561         bsf STATUS,5
  00000001            01562 ram_bank = 1
01C3   00E4           01563         movwf Cmd
  000001C4            01564 F1_000136 equ $ ; IN [BCC398.BAS] GOSUB KomutGonder
01C4   1283           01565         bcf STATUS,5
  00000000            01566 ram_bank = 0
                      01567         f@call KomutGonder
  000001C8            01568 F1_000137 equ $ ; IN [BCC398.BAS] DELAYMS 10
01C8   300A           01569         movlw 10
                      01570         f@call __DELAY_MS_
  000001CB            01571 F1_000138 equ $ ; IN [BCC398.BAS] Cmd = $79
01CB   3079           01572         movlw 121
01CC   1683           01573         bsf STATUS,5
  00000001            01574 ram_bank = 1
01CD   00E4           01575         movwf Cmd
  000001CE            01576 F1_000139 equ $ ; IN [BCC398.BAS] GOSUB KomutGonder
01CE   1283           01577         bcf STATUS,5
  00000000            01578 ram_bank = 0
                      01579         f@call KomutGonder
  000001D2            01580 F1_000140 equ $ ; IN [BCC398.BAS] DELAYMS 10
01D2   300A           01581         movlw 10
                      01582         f@call __DELAY_MS_
  000001D5            01583 F1_000141 equ $ ; IN [BCC398.BAS] Cmd = $D5
01D5   30D5           01584         movlw 213
01D6   1683           01585         bsf STATUS,5
  00000001            01586 ram_bank = 1
01D7   00E4           01587         movwf Cmd
  000001D8            01588 F1_000142 equ $ ; IN [BCC398.BAS] GOSUB KomutGonder
01D8   1283           01589         bcf STATUS,5
  00000000            01590 ram_bank = 0
                      01591         f@call KomutGonder
  000001DC            01592 F1_000143 equ $ ; IN [BCC398.BAS] DELAYMS 10
01DC   300A           01593         movlw 10
                      01594         f@call __DELAY_MS_
  000001DF            01595 F1_000144 equ $ ; IN [BCC398.BAS] Cmd = $70
01DF   3070           01596         movlw 112
01E0   1683           01597         bsf STATUS,5
  00000001            01598 ram_bank = 1
01E1   00E4           01599         movwf Cmd
  000001E2            01600 F1_000145 equ $ ; IN [BCC398.BAS] GOSUB KomutGonder
01E2   1283           01601         bcf STATUS,5
  00000000            01602 ram_bank = 0
                      01603         f@call KomutGonder
  000001E6            01604 F1_000146 equ $ ; IN [BCC398.BAS] DELAYMS 10
01E6   300A           01605         movlw 10
                      01606         f@call __DELAY_MS_
  000001E9            01607 F1_000147 equ $ ; IN [BCC398.BAS] Cmd = $78
01E9   3078           01608         movlw 120
01EA   1683           01609         bsf STATUS,5
  00000001            01610 ram_bank = 1
01EB   00E4           01611         movwf Cmd
  000001EC            01612 F1_000148 equ $ ; IN [BCC398.BAS] GOSUB KomutGonder
01EC   1283           01613         bcf STATUS,5
  00000000            01614 ram_bank = 0
                      01615         f@call KomutGonder
  000001F0            01616 F1_000149 equ $ ; IN [BCC398.BAS] DELAYMS 10
01F0   300A           01617         movlw 10
                      01618         f@call __DELAY_MS_
  000001F3            01619 F1_000150 equ $ ; IN [BCC398.BAS] Cmd = $08
01F3   3008           01620         movlw 8
01F4   1683           01621         bsf STATUS,5
  00000001            01622 ram_bank = 1
01F5   00E4           01623         movwf Cmd
  000001F6            01624 F1_000151 equ $ ; IN [BCC398.BAS] GOSUB KomutGonder
01F6   1283           01625         bcf STATUS,5
  00000000            01626 ram_bank = 0
                      01627         f@call KomutGonder
  000001FA            01628 F1_000152 equ $ ; IN [BCC398.BAS] DELAYMS 10
01FA   300A           01629         movlw 10
                      01630         f@call __DELAY_MS_
  000001FD            01631 F1_000153 equ $ ; IN [BCC398.BAS] Cmd = $06
01FD   3006           01632         movlw 6
01FE   1683           01633         bsf STATUS,5
  00000001            01634 ram_bank = 1
01FF   00E4           01635         movwf Cmd
  00000200            01636 F1_000154 equ $ ; IN [BCC398.BAS] GOSUB KomutGonder
0200   1283           01637         bcf STATUS,5
  00000000            01638 ram_bank = 0
                      01639         f@call KomutGonder
  00000204            01640 F1_000155 equ $ ; IN [BCC398.BAS] DELAYMS 10
0204   300A           01641         movlw 10
                      01642         f@call __DELAY_MS_
  00000207            01643 F1_000157 equ $ ; IN [BCC398.BAS] Cmd = $2A
0207   302A           01644         movlw 42
0208   1683           01645         bsf STATUS,5
  00000001            01646 ram_bank = 1
0209   00E4           01647         movwf Cmd
  0000020A            01648 F1_000158 equ $ ; IN [BCC398.BAS] GOSUB KomutGonder
020A   1283           01649         bcf STATUS,5
  00000000            01650 ram_bank = 0
                      01651         f@call KomutGonder
  0000020E            01652 F1_000159 equ $ ; IN [BCC398.BAS] DELAYMS 10
020E   300A           01653         movlw 10
                      01654         f@call __DELAY_MS_
  00000211            01655 F1_000160 equ $ ; IN [BCC398.BAS] Cmd = $79
0211   3079           01656         movlw 121
0212   1683           01657         bsf STATUS,5
  00000001            01658 ram_bank = 1
0213   00E4           01659         movwf Cmd
  00000214            01660 F1_000161 equ $ ; IN [BCC398.BAS] GOSUB KomutGonder
0214   1283           01661         bcf STATUS,5
  00000000            01662 ram_bank = 0
                      01663         f@call KomutGonder
  00000218            01664 F1_000162 equ $ ; IN [BCC398.BAS] DELAYMS 10
0218   300A           01665         movlw 10
                      01666         f@call __DELAY_MS_
  0000021B            01667 F1_000164 equ $ ; IN [BCC398.BAS] Cmd = $72
021B   3072           01668         movlw 114
021C   1683           01669         bsf STATUS,5
  00000001            01670 ram_bank = 1
021D   00E4           01671         movwf Cmd
  0000021E            01672 F1_000165 equ $ ; IN [BCC398.BAS] GOSUB KomutGonder
021E   1283           01673         bcf STATUS,5
  00000000            01674 ram_bank = 0
                      01675         f@call KomutGonder
  00000222            01676 F1_000166 equ $ ; IN [BCC398.BAS] DELAYMS 10
0222   300A           01677         movlw 10
                      01678         f@call __DELAY_MS_
  00000225            01679 F1_000172 equ $ ; IN [BCC398.BAS] Cmd = $0
0225   1683           01680         bsf STATUS,5
  00000001            01681 ram_bank = 1
0226   01E4           01682         clrf Cmd
  00000227            01683 F1_000173 equ $ ; IN [BCC398.BAS] GOSUB KomutGonder
0227   1283           01684         bcf STATUS,5
  00000000            01685 ram_bank = 0
                      01686         f@call KomutGonder
  0000022B            01687 F1_000174 equ $ ; IN [BCC398.BAS] DELAYMS 10
022B   300A           01688         movlw 10
                      01689         f@call __DELAY_MS_
  0000022E            01690 F1_000175 equ $ ; IN [BCC398.BAS] Cmd = $DA
022E   30DA           01691         movlw 218
022F   1683           01692         bsf STATUS,5
  00000001            01693 ram_bank = 1
0230   00E4           01694         movwf Cmd
  00000231            01695 F1_000176 equ $ ; IN [BCC398.BAS] GOSUB KomutGonder
0231   1283           01696         bcf STATUS,5
  00000000            01697 ram_bank = 0
                      01698         f@call KomutGonder
  00000235            01699 F1_000177 equ $ ; IN [BCC398.BAS] DELAYMS 10
0235   300A           01700         movlw 10
                      01701         f@call __DELAY_MS_
  00000238            01702 F1_000178 equ $ ; IN [BCC398.BAS] Cmd = $10
0238   3010           01703         movlw 16
0239   1683           01704         bsf STATUS,5
  00000001            01705 ram_bank = 1
023A   00E4           01706         movwf Cmd
  0000023B            01707 F1_000179 equ $ ; IN [BCC398.BAS] GOSUB KomutGonder
023B   1283           01708         bcf STATUS,5
  00000000            01709 ram_bank = 0
                      01710         f@call KomutGonder
  0000023F            01711 F1_000180 equ $ ; IN [BCC398.BAS] DELAYMS 10
023F   300A           01712         movlw 10
                      01713         f@call __DELAY_MS_
  00000242            01714 F1_000181 equ $ ; IN [BCC398.BAS] Cmd = $81
0242   3081           01715         movlw 129
0243   1683           01716         bsf STATUS,5
  00000001            01717 ram_bank = 1
0244   00E4           01718         movwf Cmd
  00000245            01719 F1_000182 equ $ ; IN [BCC398.BAS] GOSUB KomutGonder
0245   1283           01720         bcf STATUS,5
  00000000            01721 ram_bank = 0
                      01722         f@call KomutGonder
  00000249            01723 F1_000183 equ $ ; IN [BCC398.BAS] DELAYMS 10
0249   300A           01724         movlw 10
                      01725         f@call __DELAY_MS_
  0000024C            01726 F1_000184 equ $ ; IN [BCC398.BAS] Cmd = $FF
024C   30FF           01727         movlw 255
024D   1683           01728         bsf STATUS,5
  00000001            01729 ram_bank = 1
024E   00E4           01730         movwf Cmd
  0000024F            01731 F1_000185 equ $ ; IN [BCC398.BAS] GOSUB KomutGonder
024F   1283           01732         bcf STATUS,5
  00000000            01733 ram_bank = 0
                      01734         f@call KomutGonder
  00000253            01735 F1_000186 equ $ ; IN [BCC398.BAS] DELAYMS 10
0253   300A           01736         movlw 10
                      01737         f@call __DELAY_MS_
  00000256            01738 F1_000187 equ $ ; IN [BCC398.BAS] Cmd = $db
0256   30DB           01739         movlw 219
0257   1683           01740         bsf STATUS,5
  00000001            01741 ram_bank = 1
0258   00E4           01742         movwf Cmd
  00000259            01743 F1_000188 equ $ ; IN [BCC398.BAS] GOSUB KomutGonder
0259   1283           01744         bcf STATUS,5
  00000000            01745 ram_bank = 0
                      01746         f@call KomutGonder
  0000025D            01747 F1_000189 equ $ ; IN [BCC398.BAS] DELAYMS 10
025D   300A           01748         movlw 10
                      01749         f@call __DELAY_MS_
  00000260            01750 F1_000190 equ $ ; IN [BCC398.BAS] Cmd = $30
0260   3030           01751         movlw 48
0261   1683           01752         bsf STATUS,5
  00000001            01753 ram_bank = 1
0262   00E4           01754         movwf Cmd
  00000263            01755 F1_000191 equ $ ; IN [BCC398.BAS] GOSUB KomutGonder
0263   1283           01756         bcf STATUS,5
  00000000            01757 ram_bank = 0
                      01758         f@call KomutGonder
  00000267            01759 F1_000192 equ $ ; IN [BCC398.BAS] DELAYMS 10
0267   300A           01760         movlw 10
                      01761         f@call __DELAY_MS_
  0000026A            01762 F1_000193 equ $ ; IN [BCC398.BAS] Cmd = $DC
026A   30DC           01763         movlw 220
026B   1683           01764         bsf STATUS,5
  00000001            01765 ram_bank = 1
026C   00E4           01766         movwf Cmd
  0000026D            01767 F1_000194 equ $ ; IN [BCC398.BAS] GOSUB KomutGonder
026D   1283           01768         bcf STATUS,5
  00000000            01769 ram_bank = 0
                      01770         f@call KomutGonder
  00000271            01771 F1_000195 equ $ ; IN [BCC398.BAS] DELAYMS 10
0271   300A           01772         movlw 10
                      01773         f@call __DELAY_MS_
  00000274            01774 F1_000196 equ $ ; IN [BCC398.BAS] Cmd = $03
0274   3003           01775         movlw 3
0275   1683           01776         bsf STATUS,5
  00000001            01777 ram_bank = 1
0276   00E4           01778         movwf Cmd
  00000277            01779 F1_000197 equ $ ; IN [BCC398.BAS] GOSUB KomutGonder
0277   1283           01780         bcf STATUS,5
  00000000            01781 ram_bank = 0
                      01782         f@call KomutGonder
  0000027B            01783 F1_000198 equ $ ; IN [BCC398.BAS] DELAYMS 10
027B   300A           01784         movlw 10
                      01785         f@call __DELAY_MS_
  0000027E            01786 F1_000199 equ $ ; IN [BCC398.BAS] Cmd = $78
027E   3078           01787         movlw 120
027F   1683           01788         bsf STATUS,5
  00000001            01789 ram_bank = 1
0280   00E4           01790         movwf Cmd
  00000281            01791 F1_000200 equ $ ; IN [BCC398.BAS] GOSUB KomutGonder
0281   1283           01792         bcf STATUS,5
  00000000            01793 ram_bank = 0
                      01794         f@call KomutGonder
  00000285            01795 F1_000201 equ $ ; IN [BCC398.BAS] DELAYMS 10
0285   300A           01796         movlw 10
                      01797         f@call __DELAY_MS_
  00000288            01798 F1_000202 equ $ ; IN [BCC398.BAS] Cmd = $28
0288   3028           01799         movlw 40
0289   1683           01800         bsf STATUS,5
  00000001            01801 ram_bank = 1
028A   00E4           01802         movwf Cmd
  0000028B            01803 F1_000203 equ $ ; IN [BCC398.BAS] GOSUB KomutGonder
028B   1283           01804         bcf STATUS,5
  00000000            01805 ram_bank = 0
                      01806         f@call KomutGonder
  0000028F            01807 F1_000204 equ $ ; IN [BCC398.BAS] DELAYMS 10
028F   300A           01808         movlw 10
                      01809         f@call __DELAY_MS_
  00000292            01810 F1_000205 equ $ ; IN [BCC398.BAS] Cmd = $2A
0292   302A           01811         movlw 42
0293   1683           01812         bsf STATUS,5
  00000001            01813 ram_bank = 1
0294   00E4           01814         movwf Cmd
  00000295            01815 F1_000207 equ $ ; IN [BCC398.BAS] GOSUB KomutGonder
0295   1283           01816         bcf STATUS,5
  00000000            01817 ram_bank = 0
                      01818         f@call KomutGonder
  00000299            01819 F1_000208 equ $ ; IN [BCC398.BAS] DELAYMS 10
0299   300A           01820         movlw 10
                      01821         f@call __DELAY_MS_
  0000029C            01822 F1_000209 equ $ ; IN [BCC398.BAS] Cmd = $06
029C   3006           01823         movlw 6
029D   1683           01824         bsf STATUS,5
  00000001            01825 ram_bank = 1
029E   00E4           01826         movwf Cmd
  0000029F            01827 F1_000210 equ $ ; IN [BCC398.BAS] GOSUB KomutGonder
029F   1283           01828         bcf STATUS,5
  00000000            01829 ram_bank = 0
                      01830         f@call KomutGonder
  000002A3            01831 F1_000211 equ $ ; IN [BCC398.BAS] DELAYMS 10
02A3   300A           01832         movlw 10
                      01833         f@call __DELAY_MS_
  000002A6            01834 F1_000212 equ $ ; IN [BCC398.BAS] Cmd = $08
02A6   3008           01835         movlw 8
02A7   1683           01836         bsf STATUS,5
  00000001            01837 ram_bank = 1
02A8   00E4           01838         movwf Cmd
  000002A9            01839 F1_000213 equ $ ; IN [BCC398.BAS] GOSUB KomutGonder
02A9   1283           01840         bcf STATUS,5
  00000000            01841 ram_bank = 0
                      01842         f@call KomutGonder
  000002AD            01843 F1_000214 equ $ ; IN [BCC398.BAS] DELAYMS 10
02AD   300A           01844         movlw 10
                      01845         f@call __DELAY_MS_
  000002B0            01846 F1_000215 equ $ ; IN [BCC398.BAS] Cmd = $28
02B0   3028           01847         movlw 40
02B1   1683           01848         bsf STATUS,5
  00000001            01849 ram_bank = 1
02B2   00E4           01850         movwf Cmd
  000002B3            01851 F1_000216 equ $ ; IN [BCC398.BAS] GOSUB KomutGonder
02B3   1283           01852         bcf STATUS,5
  00000000            01853 ram_bank = 0
                      01854         f@call KomutGonder
  000002B7            01855 F1_000217 equ $ ; IN [BCC398.BAS] DELAYMS 10
02B7   300A           01856         movlw 10
                      01857         f@call __DELAY_MS_
  000002BA            01858 F1_000218 equ $ ; IN [BCC398.BAS] Cmd = $01
02BA   3001           01859         movlw 1
02BB   1683           01860         bsf STATUS,5
  00000001            01861 ram_bank = 1
02BC   00E4           01862         movwf Cmd
  000002BD            01863 F1_000219 equ $ ; IN [BCC398.BAS] GOSUB KomutGonder
02BD   1283           01864         bcf STATUS,5
  00000000            01865 ram_bank = 0
                      01866         f@call KomutGonder
  000002C1            01867 F1_000220 equ $ ; IN [BCC398.BAS] DELAYMS 10
02C1   300A           01868         movlw 10
                      01869         f@call __DELAY_MS_
  000002C4            01870 F1_000221 equ $ ; IN [BCC398.BAS] Cmd = $80
02C4   3080           01871         movlw 128
02C5   1683           01872         bsf STATUS,5
  00000001            01873 ram_bank = 1
02C6   00E4           01874         movwf Cmd
  000002C7            01875 F1_000222 equ $ ; IN [BCC398.BAS] GOSUB KomutGonder
02C7   1283           01876         bcf STATUS,5
  00000000            01877 ram_bank = 0
                      01878         f@call KomutGonder
  000002CB            01879 F1_000223 equ $ ; IN [BCC398.BAS] DELAYMS 100
02CB   3064           01880         movlw 100
                      01881         f@call __DELAY_MS_
  000002CE            01882 F1_000224 equ $ ; IN [BCC398.BAS] Cmd = $0C
02CE   300C           01883         movlw 12
02CF   1683           01884         bsf STATUS,5
  00000001            01885 ram_bank = 1
02D0   00E4           01886         movwf Cmd
  000002D1            01887 F1_000225 equ $ ; IN [BCC398.BAS] GOSUB KomutGonder
02D1   1283           01888         bcf STATUS,5
  00000000            01889 ram_bank = 0
                      01890         f@call KomutGonder
02D5                  01891 Dongu
  000002D5            01892 F1_000278 equ $ ; IN [BCC398.BAS] Segments[0] = Degerler[35]
02D5   0877           01893         movf Degerler#35,W
02D6   00A7           01894         movwf PBP#VAR0
02D7   0827           01895         movf PBP#VAR0,W
02D8   1683           01896         bsf STATUS,5
  00000001            01897 ram_bank = 1
02D9   00D3           01898         movwf Segments#0
  000002DA            01899 F1_000279 equ $ ; IN [BCC398.BAS] Segments[1] = Degerler[31]
02DA   1283           01900         bcf STATUS,5
  00000000            01901 ram_bank = 0
02DB   0873           01902         movf Degerler#31,W
02DC   00A7           01903         movwf PBP#VAR0
02DD   0827           01904         movf PBP#VAR0,W
02DE   1683           01905         bsf STATUS,5
  00000001            01906 ram_bank = 1
02DF   00D4           01907         movwf Segments#1
  000002E0            01908 F1_000280 equ $ ; IN [BCC398.BAS] Segments[2] = Degerler[1]
02E0   1283           01909         bcf STATUS,5
  00000000            01910 ram_bank = 0
02E1   0855           01911         movf Degerler#1,W
02E2   00A7           01912         movwf PBP#VAR0
02E3   0827           01913         movf PBP#VAR0,W
02E4   1683           01914         bsf STATUS,5
  00000001            01915 ram_bank = 1
02E5   00D5           01916         movwf Segments#2
  000002E6            01917 F1_000281 equ $ ; IN [BCC398.BAS] Segments[3] = Degerler[3]
02E6   1283           01918         bcf STATUS,5
  00000000            01919 ram_bank = 0
02E7   0857           01920         movf Degerler#3,W
02E8   00A7           01921         movwf PBP#VAR0
02E9   0827           01922         movf PBP#VAR0,W
02EA   1683           01923         bsf STATUS,5
  00000001            01924 ram_bank = 1
02EB   00D6           01925         movwf Segments#3
  000002EC            01926 F1_000282 equ $ ; IN [BCC398.BAS] Segments[4] = Degerler[36]
02EC   1283           01927         bcf STATUS,5
  00000000            01928 ram_bank = 0
02ED   0878           01929         movf Degerler#36,W
02EE   00A7           01930         movwf PBP#VAR0
02EF   0827           01931         movf PBP#VAR0,W
02F0   1683           01932         bsf STATUS,5
  00000001            01933 ram_bank = 1
02F1   00D7           01934         movwf Segments#4
  000002F2            01935 F1_000283 equ $ ; IN [BCC398.BAS] Segments[5] = Degerler[2]
02F2   1283           01936         bcf STATUS,5
  00000000            01937 ram_bank = 0
02F3   0856           01938         movf Degerler#2,W
02F4   00A7           01939         movwf PBP#VAR0
02F5   0827           01940         movf PBP#VAR0,W
02F6   1683           01941         bsf STATUS,5
  00000001            01942 ram_bank = 1
02F7   00D8           01943         movwf Segments#5
  000002F8            01944 F1_000284 equ $ ; IN [BCC398.BAS] Segments[6] = Degerler[65]
02F8   0839           01945         movf Degerler#65,W
02F9   1283           01946         bcf STATUS,5
  00000000            01947 ram_bank = 0
02FA   00A7           01948         movwf PBP#VAR0
02FB   0827           01949         movf PBP#VAR0,W
02FC   1683           01950         bsf STATUS,5
  00000001            01951 ram_bank = 1
02FD   00D9           01952         movwf Segments#6
  000002FE            01953 F1_000285 equ $ ; IN [BCC398.BAS] GOSUB CalcValue
02FE   1283           01954         bcf STATUS,5
  00000000            01955 ram_bank = 0
                      01956         f@call CalcValue
  00000302            01957 F1_000286 equ $ ; IN [BCC398.BAS] FrqDigits[1] = ResValue
0302   1683           01958         bsf STATUS,5
  00000001            01959 ram_bank = 1
0303   085B           01960         movf ResValue,W
0304   00DD           01961         movwf FrqDigits#1
  00000305            01962 F1_000290 equ $ ; IN [BCC398.BAS] Segments[0] = Degerler[4]
0305   1283           01963         bcf STATUS,5
  00000000            01964 ram_bank = 0
0306   0858           01965         movf Degerler#4,W
0307   00A7           01966         movwf PBP#VAR0
0308   0827           01967         movf PBP#VAR0,W
0309   1683           01968         bsf STATUS,5
  00000001            01969 ram_bank = 1
030A   00D3           01970         movwf Segments#0
  0000030B            01971 F1_000291 equ $ ; IN [BCC398.BAS] Segments[1] = Degerler[38]
030B   1283           01972         bcf STATUS,5
  00000000            01973 ram_bank = 0
030C   087A           01974         movf Degerler#38,W
030D   00A7           01975         movwf PBP#VAR0
030E   0827           01976         movf PBP#VAR0,W
030F   1683           01977         bsf STATUS,5
  00000001            01978 ram_bank = 1
0310   00D4           01979         movwf Segments#1
  00000311            01980 F1_000292 equ $ ; IN [BCC398.BAS] Segments[2] = Degerler[21]
0311   1283           01981         bcf STATUS,5
  00000000            01982 ram_bank = 0
0312   0869           01983         movf Degerler#21,W
0313   00A7           01984         movwf PBP#VAR0
0314   0827           01985         movf PBP#VAR0,W
0315   1683           01986         bsf STATUS,5
  00000001            01987 ram_bank = 1
0316   00D5           01988         movwf Segments#2
  00000317            01989 F1_000293 equ $ ; IN [BCC398.BAS] Segments[3] = Degerler[55]
0317   082F           01990         movf Degerler#55,W
0318   1283           01991         bcf STATUS,5
  00000000            01992 ram_bank = 0
0319   00A7           01993         movwf PBP#VAR0
031A   0827           01994         movf PBP#VAR0,W
031B   1683           01995         bsf STATUS,5
  00000001            01996 ram_bank = 1
031C   00D6           01997         movwf Segments#3
  0000031D            01998 F1_000294 equ $ ; IN [BCC398.BAS] Segments[4] = Degerler[56]
031D   0830           01999         movf Degerler#56,W
031E   1283           02000         bcf STATUS,5
  00000000            02001 ram_bank = 0
031F   00A7           02002         movwf PBP#VAR0
0320   0827           02003         movf PBP#VAR0,W
0321   1683           02004         bsf STATUS,5
  00000001            02005 ram_bank = 1
0322   00D7           02006         movwf Segments#4
  00000323            02007 F1_000295 equ $ ; IN [BCC398.BAS] Segments[5] = Degerler[37]
0323   1283           02008         bcf STATUS,5
  00000000            02009 ram_bank = 0
0324   0879           02010         movf Degerler#37,W
0325   00A7           02011         movwf PBP#VAR0
0326   0827           02012         movf PBP#VAR0,W
0327   1683           02013         bsf STATUS,5
  00000001            02014 ram_bank = 1
0328   00D8           02015         movwf Segments#5
  00000329            02016 F1_000296 equ $ ; IN [BCC398.BAS] Segments[6] = Degerler[22]
0329   1283           02017         bcf STATUS,5
  00000000            02018 ram_bank = 0
032A   086A           02019         movf Degerler#22,W
032B   00A7           02020         movwf PBP#VAR0
032C   0827           02021         movf PBP#VAR0,W
032D   1683           02022         bsf STATUS,5
  00000001            02023 ram_bank = 1
032E   00D9           02024         movwf Segments#6
  0000032F            02025 F1_000297 equ $ ; IN [BCC398.BAS] GOSUB CalcValue
032F   1283           02026         bcf STATUS,5
  00000000            02027 ram_bank = 0
                      02028         f@call CalcValue
  00000333            02029 F1_000298 equ $ ; IN [BCC398.BAS] FrqDigits[2] = ResValue
0333   1683           02030         bsf STATUS,5
  00000001            02031 ram_bank = 1
0334   085B           02032         movf ResValue,W
0335   00DE           02033         movwf FrqDigits#2
  00000336            02034 F1_000302 equ $ ; IN [BCC398.BAS] Segments[0] = Degerler[5]
0336   1283           02035         bcf STATUS,5
  00000000            02036 ram_bank = 0
0337   0859           02037         movf Degerler#5,W
0338   00A7           02038         movwf PBP#VAR0
0339   0827           02039         movf PBP#VAR0,W
033A   1683           02040         bsf STATUS,5
  00000001            02041 ram_bank = 1
033B   00D3           02042         movwf Segments#0
  0000033C            02043 F1_000303 equ $ ; IN [BCC398.BAS] Segments[1] = Degerler[28]
033C   1283           02044         bcf STATUS,5
  00000000            02045 ram_bank = 0
033D   0870           02046         movf Degerler#28,W
033E   00A7           02047         movwf PBP#VAR0
033F   0827           02048         movf PBP#VAR0,W
0340   1683           02049         bsf STATUS,5
  00000001            02050 ram_bank = 1
0341   00D4           02051         movwf Segments#1
  00000342            02052 F1_000304 equ $ ; IN [BCC398.BAS] Segments[2] = Degerler[29]
0342   1283           02053         bcf STATUS,5
  00000000            02054 ram_bank = 0
0343   0871           02055         movf Degerler#29,W
0344   00A7           02056         movwf PBP#VAR0
0345   0827           02057         movf PBP#VAR0,W
0346   1683           02058         bsf STATUS,5
  00000001            02059 ram_bank = 1
0347   00D5           02060         movwf Segments#2
  00000348            02061 F1_000305 equ $ ; IN [BCC398.BAS] Segments[3] = Degerler[63]
0348   0837           02062         movf Degerler#63,W
0349   1283           02063         bcf STATUS,5
  00000000            02064 ram_bank = 0
034A   00A7           02065         movwf PBP#VAR0
034B   0827           02066         movf PBP#VAR0,W
034C   1683           02067         bsf STATUS,5
  00000001            02068 ram_bank = 1
034D   00D6           02069         movwf Segments#3
  0000034E            02070 F1_000306 equ $ ; IN [BCC398.BAS] Segments[4] = Degerler[64]
034E   0838           02071         movf Degerler#64,W
034F   1283           02072         bcf STATUS,5
  00000000            02073 ram_bank = 0
0350   00A7           02074         movwf PBP#VAR0
0351   0827           02075         movf PBP#VAR0,W
0352   1683           02076         bsf STATUS,5
  00000001            02077 ram_bank = 1
0353   00D7           02078         movwf Segments#4
  00000354            02079 F1_000307 equ $ ; IN [BCC398.BAS] Segments[5] = Degerler[30]
0354   1283           02080         bcf STATUS,5
  00000000            02081 ram_bank = 0
0355   0872           02082         movf Degerler#30,W
0356   00A7           02083         movwf PBP#VAR0
0357   0827           02084         movf PBP#VAR0,W
0358   1683           02085         bsf STATUS,5
  00000001            02086 ram_bank = 1
0359   00D8           02087         movwf Segments#5
  0000035A            02088 F1_000308 equ $ ; IN [BCC398.BAS] Segments[6] = Degerler[62]
035A   0836           02089         movf Degerler#62,W
035B   1283           02090         bcf STATUS,5
  00000000            02091 ram_bank = 0
035C   00A7           02092         movwf PBP#VAR0
035D   0827           02093         movf PBP#VAR0,W
035E   1683           02094         bsf STATUS,5
  00000001            02095 ram_bank = 1
035F   00D9           02096         movwf Segments#6
  00000360            02097 F1_000309 equ $ ; IN [BCC398.BAS] GOSUB CalcValue
0360   1283           02098         bcf STATUS,5
  00000000            02099 ram_bank = 0
                      02100         f@call CalcValue
  00000364            02101 F1_000310 equ $ ; IN [BCC398.BAS] FrqDigits[3] = ResValue
0364   1683           02102         bsf STATUS,5
  00000001            02103 ram_bank = 1
0365   085B           02104         movf ResValue,W
0366   00DF           02105         movwf FrqDigits#3
  00000367            02106 F1_000314 equ $ ; IN [BCC398.BAS] Segments[0] = Degerler[6]
0367   1283           02107         bcf STATUS,5
  00000000            02108 ram_bank = 0
0368   085A           02109         movf Degerler#6,W
0369   00A7           02110         movwf PBP#VAR0
036A   0827           02111         movf PBP#VAR0,W
036B   1683           02112         bsf STATUS,5
  00000001            02113 ram_bank = 1
036C   00D3           02114         movwf Segments#0
  0000036D            02115 F1_000315 equ $ ; IN [BCC398.BAS] Segments[1] = Degerler[40]
036D   0820           02116         movf Degerler#40,W
036E   1283           02117         bcf STATUS,5
  00000000            02118 ram_bank = 0
036F   00A7           02119         movwf PBP#VAR0
0370   0827           02120         movf PBP#VAR0,W
0371   1683           02121         bsf STATUS,5
  00000001            02122 ram_bank = 1
0372   00D4           02123         movwf Segments#1
  00000373            02124 F1_000316 equ $ ; IN [BCC398.BAS] Segments[2] = Degerler[26]
0373   1283           02125         bcf STATUS,5
  00000000            02126 ram_bank = 0
0374   086E           02127         movf Degerler#26,W
0375   00A7           02128         movwf PBP#VAR0
0376   0827           02129         movf PBP#VAR0,W
0377   1683           02130         bsf STATUS,5
  00000001            02131 ram_bank = 1
0378   00D5           02132         movwf Segments#2
  00000379            02133 F1_000317 equ $ ; IN [BCC398.BAS] Segments[3] = Degerler[60]
0379   0834           02134         movf Degerler#60,W
037A   1283           02135         bcf STATUS,5
  00000000            02136 ram_bank = 0
037B   00A7           02137         movwf PBP#VAR0
037C   0827           02138         movf PBP#VAR0,W
037D   1683           02139         bsf STATUS,5
  00000001            02140 ram_bank = 1
037E   00D6           02141         movwf Segments#3
  0000037F            02142 F1_000318 equ $ ; IN [BCC398.BAS] Segments[4] = Degerler[61]
037F   0835           02143         movf Degerler#61,W
0380   1283           02144         bcf STATUS,5
  00000000            02145 ram_bank = 0
0381   00A7           02146         movwf PBP#VAR0
0382   0827           02147         movf PBP#VAR0,W
0383   1683           02148         bsf STATUS,5
  00000001            02149 ram_bank = 1
0384   00D7           02150         movwf Segments#4
  00000385            02151 F1_000319 equ $ ; IN [BCC398.BAS] Segments[5] = Degerler[39]
0385   1283           02152         bcf STATUS,5
  00000000            02153 ram_bank = 0
0386   087B           02154         movf Degerler#39,W
0387   00A7           02155         movwf PBP#VAR0
0388   0827           02156         movf PBP#VAR0,W
0389   1683           02157         bsf STATUS,5
  00000001            02158 ram_bank = 1
038A   00D8           02159         movwf Segments#5
  0000038B            02160 F1_000320 equ $ ; IN [BCC398.BAS] Segments[6] = Degerler[27]
038B   1283           02161         bcf STATUS,5
  00000000            02162 ram_bank = 0
038C   086F           02163         movf Degerler#27,W
038D   00A7           02164         movwf PBP#VAR0
038E   0827           02165         movf PBP#VAR0,W
038F   1683           02166         bsf STATUS,5
  00000001            02167 ram_bank = 1
0390   00D9           02168         movwf Segments#6
  00000391            02169 F1_000321 equ $ ; IN [BCC398.BAS] GOSUB CalcValue
0391   1283           02170         bcf STATUS,5
  00000000            02171 ram_bank = 0
                      02172         f@call CalcValue
  00000395            02173 F1_000322 equ $ ; IN [BCC398.BAS] FrqDigits[4] = ResValue
0395   1683           02174         bsf STATUS,5
  00000001            02175 ram_bank = 1
0396   085B           02176         movf ResValue,W
0397   00E0           02177         movwf FrqDigits#4
  00000398            02178 F1_000325 equ $ ; IN [BCC398.BAS] Segments[0] = Degerler[7]
0398   1283           02179         bcf STATUS,5
  00000000            02180 ram_bank = 0
0399   085B           02181         movf Degerler#7,W
039A   00A7           02182         movwf PBP#VAR0
039B   0827           02183         movf PBP#VAR0,W
039C   1683           02184         bsf STATUS,5
  00000001            02185 ram_bank = 1
039D   00D3           02186         movwf Segments#0
  0000039E            02187 F1_000326 equ $ ; IN [BCC398.BAS] Segments[1] = Degerler[23]
039E   1283           02188         bcf STATUS,5
  00000000            02189 ram_bank = 0
039F   086B           02190         movf Degerler#23,W
03A0   00A7           02191         movwf PBP#VAR0
03A1   0827           02192         movf PBP#VAR0,W
03A2   1683           02193         bsf STATUS,5
  00000001            02194 ram_bank = 1
03A3   00D4           02195         movwf Segments#1
  000003A4            02196 F1_000327 equ $ ; IN [BCC398.BAS] Segments[2] = Degerler[24]
03A4   1283           02197         bcf STATUS,5
  00000000            02198 ram_bank = 0
03A5   086C           02199         movf Degerler#24,W
03A6   00A7           02200         movwf PBP#VAR0
03A7   0827           02201         movf PBP#VAR0,W
03A8   1683           02202         bsf STATUS,5
  00000001            02203 ram_bank = 1
03A9   00D5           02204         movwf Segments#2
  000003AA            02205 F1_000328 equ $ ; IN [BCC398.BAS] Segments[3] = Degerler[58]
03AA   0832           02206         movf Degerler#58,W
03AB   1283           02207         bcf STATUS,5
  00000000            02208 ram_bank = 0
03AC   00A7           02209         movwf PBP#VAR0
03AD   0827           02210         movf PBP#VAR0,W
03AE   1683           02211         bsf STATUS,5
  00000001            02212 ram_bank = 1
03AF   00D6           02213         movwf Segments#3
  000003B0            02214 F1_000329 equ $ ; IN [BCC398.BAS] Segments[4] = Degerler[59]
03B0   0833           02215         movf Degerler#59,W
03B1   1283           02216         bcf STATUS,5
  00000000            02217 ram_bank = 0
03B2   00A7           02218         movwf PBP#VAR0
03B3   0827           02219         movf PBP#VAR0,W
03B4   1683           02220         bsf STATUS,5
  00000001            02221 ram_bank = 1
03B5   00D7           02222         movwf Segments#4
  000003B6            02223 F1_000330 equ $ ; IN [BCC398.BAS] Segments[5] = Degerler[25]
03B6   1283           02224         bcf STATUS,5
  00000000            02225 ram_bank = 0
03B7   086D           02226         movf Degerler#25,W
03B8   00A7           02227         movwf PBP#VAR0
03B9   0827           02228         movf PBP#VAR0,W
03BA   1683           02229         bsf STATUS,5
  00000001            02230 ram_bank = 1
03BB   00D8           02231         movwf Segments#5
  000003BC            02232 F1_000331 equ $ ; IN [BCC398.BAS] Segments[6] = Degerler[57]
03BC   0831           02233         movf Degerler#57,W
03BD   1283           02234         bcf STATUS,5
  00000000            02235 ram_bank = 0
03BE   00A7           02236         movwf PBP#VAR0
03BF   0827           02237         movf PBP#VAR0,W
03C0   1683           02238         bsf STATUS,5
  00000001            02239 ram_bank = 1
03C1   00D9           02240         movwf Segments#6
  000003C2            02241 F1_000332 equ $ ; IN [BCC398.BAS] GOSUB CalcValue
03C2   1283           02242         bcf STATUS,5
  00000000            02243 ram_bank = 0
                      02244         f@call CalcValue
  000003C6            02245 F1_000333 equ $ ; IN [BCC398.BAS] FrqDigits[5] = ResValue
03C6   1683           02246         bsf STATUS,5
  00000001            02247 ram_bank = 1
03C7   085B           02248         movf ResValue,W
03C8   00E1           02249         movwf FrqDigits#5
  000003C9            02250 F1_000336 equ $ ; IN [BCC398.BAS] Segments[0] = Degerler[8]
03C9   1283           02251         bcf STATUS,5
  00000000            02252 ram_bank = 0
03CA   085C           02253         movf Degerler#8,W
03CB   00A7           02254         movwf PBP#VAR0
03CC   0827           02255         movf PBP#VAR0,W
03CD   1683           02256         bsf STATUS,5
  00000001            02257 ram_bank = 1
03CE   00D3           02258         movwf Segments#0
  000003CF            02259 F1_000337 equ $ ; IN [BCC398.BAS] Segments[1] = Degerler[42]
03CF   0822           02260         movf Degerler#42,W
03D0   1283           02261         bcf STATUS,5
  00000000            02262 ram_bank = 0
03D1   00A7           02263         movwf PBP#VAR0
03D2   0827           02264         movf PBP#VAR0,W
03D3   1683           02265         bsf STATUS,5
  00000001            02266 ram_bank = 1
03D4   00D4           02267         movwf Segments#1
  000003D5            02268 F1_000338 equ $ ; IN [BCC398.BAS] Segments[2] = Degerler[19]
03D5   1283           02269         bcf STATUS,5
  00000000            02270 ram_bank = 0
03D6   0867           02271         movf Degerler#19,W
03D7   00A7           02272         movwf PBP#VAR0
03D8   0827           02273         movf PBP#VAR0,W
03D9   1683           02274         bsf STATUS,5
  00000001            02275 ram_bank = 1
03DA   00D5           02276         movwf Segments#2
  000003DB            02277 F1_000339 equ $ ; IN [BCC398.BAS] Segments[3] = Degerler[53]
03DB   082D           02278         movf Degerler#53,W
03DC   1283           02279         bcf STATUS,5
  00000000            02280 ram_bank = 0
03DD   00A7           02281         movwf PBP#VAR0
03DE   0827           02282         movf PBP#VAR0,W
03DF   1683           02283         bsf STATUS,5
  00000001            02284 ram_bank = 1
03E0   00D6           02285         movwf Segments#3
  000003E1            02286 F1_000340 equ $ ; IN [BCC398.BAS] Segments[4] = Degerler[54]
03E1   082E           02287         movf Degerler#54,W
03E2   1283           02288         bcf STATUS,5
  00000000            02289 ram_bank = 0
03E3   00A7           02290         movwf PBP#VAR0
03E4   0827           02291         movf PBP#VAR0,W
03E5   1683           02292         bsf STATUS,5
  00000001            02293 ram_bank = 1
03E6   00D7           02294         movwf Segments#4
  000003E7            02295 F1_000341 equ $ ; IN [BCC398.BAS] Segments[5] = Degerler[41]
03E7   0821           02296         movf Degerler#41,W
03E8   1283           02297         bcf STATUS,5
  00000000            02298 ram_bank = 0
03E9   00A7           02299         movwf PBP#VAR0
03EA   0827           02300         movf PBP#VAR0,W
03EB   1683           02301         bsf STATUS,5
  00000001            02302 ram_bank = 1
03EC   00D8           02303         movwf Segments#5
  000003ED            02304 F1_000342 equ $ ; IN [BCC398.BAS] Segments[6] = Degerler[20]
03ED   1283           02305         bcf STATUS,5
  00000000            02306 ram_bank = 0
03EE   0868           02307         movf Degerler#20,W
03EF   00A7           02308         movwf PBP#VAR0
03F0   0827           02309         movf PBP#VAR0,W
03F1   1683           02310         bsf STATUS,5
  00000001            02311 ram_bank = 1
03F2   00D9           02312         movwf Segments#6
  000003F3            02313 F1_000343 equ $ ; IN [BCC398.BAS] GOSUB CalcValue
03F3   1283           02314         bcf STATUS,5
  00000000            02315 ram_bank = 0
                      02316         f@call CalcValue
  000003F7            02317 F1_000344 equ $ ; IN [BCC398.BAS] FrqDigits[6] = ResValue
03F7   1683           02318         bsf STATUS,5
  00000001            02319 ram_bank = 1
03F8   085B           02320         movf ResValue,W
03F9   00E2           02321         movwf FrqDigits#6
  000003FA            02322 F1_000347 equ $ ; IN [BCC398.BAS] Segments[0] = Degerler[15]
03FA   1283           02323         bcf STATUS,5
  00000000            02324 ram_bank = 0
03FB   0863           02325         movf Degerler#15,W
03FC   00A7           02326         movwf PBP#VAR0
03FD   0827           02327         movf PBP#VAR0,W
03FE   1683           02328         bsf STATUS,5
  00000001            02329 ram_bank = 1
03FF   00D3           02330         movwf Segments#0
  00000400            02331 F1_000348 equ $ ; IN [BCC398.BAS] Segments[1] = Degerler[49]
0400   0829           02332         movf Degerler#49,W
0401   1283           02333         bcf STATUS,5
  00000000            02334 ram_bank = 0
0402   00A7           02335         movwf PBP#VAR0
0403   0827           02336         movf PBP#VAR0,W
0404   1683           02337         bsf STATUS,5
  00000001            02338 ram_bank = 1
0405   00D4           02339         movwf Segments#1
  00000406            02340 F1_000349 equ $ ; IN [BCC398.BAS] Segments[2] = Degerler[50]
0406   082A           02341         movf Degerler#50,W
0407   1283           02342         bcf STATUS,5
  00000000            02343 ram_bank = 0
0408   00A7           02344         movwf PBP#VAR0
0409   0827           02345         movf PBP#VAR0,W
040A   1683           02346         bsf STATUS,5
  00000001            02347 ram_bank = 1
040B   00D5           02348         movwf Segments#2
  0000040C            02349 F1_000350 equ $ ; IN [BCC398.BAS] Segments[3] = Degerler[43]
040C   0823           02350         movf Degerler#43,W
040D   1283           02351         bcf STATUS,5
  00000000            02352 ram_bank = 0
040E   00A7           02353         movwf PBP#VAR0
040F   0827           02354         movf PBP#VAR0,W
0410   1683           02355         bsf STATUS,5
  00000001            02356 ram_bank = 1
0411   00D6           02357         movwf Segments#3
  00000412            02358 F1_000351 equ $ ; IN [BCC398.BAS] Segments[4] = Degerler[48]
0412   0828           02359         movf Degerler#48,W
0413   1283           02360         bcf STATUS,5
  00000000            02361 ram_bank = 0
0414   00A7           02362         movwf PBP#VAR0
0415   0827           02363         movf PBP#VAR0,W
0416   1683           02364         bsf STATUS,5
  00000001            02365 ram_bank = 1
0417   00D7           02366         movwf Segments#4
  00000418            02367 F1_000352 equ $ ; IN [BCC398.BAS] Segments[5] = Degerler[14]
0418   1283           02368         bcf STATUS,5
  00000000            02369 ram_bank = 0
0419   0862           02370         movf Degerler#14,W
041A   00A7           02371         movwf PBP#VAR0
041B   0827           02372         movf PBP#VAR0,W
041C   1683           02373         bsf STATUS,5
  00000001            02374 ram_bank = 1
041D   00D8           02375         movwf Segments#5
  0000041E            02376 F1_000353 equ $ ; IN [BCC398.BAS] Segments[6] = Degerler[16]
041E   1283           02377         bcf STATUS,5
  00000000            02378 ram_bank = 0
041F   0864           02379         movf Degerler#16,W
0420   00A7           02380         movwf PBP#VAR0
0421   0827           02381         movf PBP#VAR0,W
0422   1683           02382         bsf STATUS,5
  00000001            02383 ram_bank = 1
0423   00D9           02384         movwf Segments#6
  00000424            02385 F1_000354 equ $ ; IN [BCC398.BAS] GOSUB CalcValue
0424   1283           02386         bcf STATUS,5
  00000000            02387 ram_bank = 0
                      02388         f@call CalcValue
  00000428            02389 F1_000355 equ $ ; IN [BCC398.BAS] Channel = ResValue
0428   1683           02390         bsf STATUS,5
  00000001            02391 ram_bank = 1
0429   085B           02392         movf ResValue,W
042A   00E3           02393         movwf Channel
  0000042B            02394 F1_000359 equ $ ; IN [BCC398.BAS] PRINT AT 1,1,"FREKANS : ",FrqDigits[1],FrqDigits[2],".",FrqDigits[3],FrqDigits[4], FrqDigits[5], FrqDigits[6]
042B   3080           02395         movlw 128
042C   1283           02396         bcf STATUS,5
  00000000            02397 ram_bank = 0
042D   00A1           02398         movwf BPFH
                      02399         f@call LCD@CRS
0430   3008           02400         movlw ((STR@LB4 >> 8) & 255)
0431   00A6           02401         movwf GEN4H
0432   302F           02402         movlw (STR@LB4 & 255)
                      02403         f@call C@STROUT
0435   1683           02404         bsf STATUS,5
  00000001            02405 ram_bank = 1
0436   085D           02406         movf FrqDigits#1,W
0437   1283           02407         bcf STATUS,5
  00000000            02408 ram_bank = 0
                      02409         f@call PRINT
043A   1683           02410         bsf STATUS,5
  00000001            02411 ram_bank = 1
043B   085E           02412         movf FrqDigits#2,W
043C   1283           02413         bcf STATUS,5
  00000000            02414 ram_bank = 0
                      02415         f@call PRINT
043F   302E           02416         movlw 46
                      02417         f@call PRINT
0442   1683           02418         bsf STATUS,5
  00000001            02419 ram_bank = 1
0443   085F           02420         movf FrqDigits#3,W
0444   1283           02421         bcf STATUS,5
  00000000            02422 ram_bank = 0
                      02423         f@call PRINT
0447   1683           02424         bsf STATUS,5
  00000001            02425 ram_bank = 1
0448   0860           02426         movf FrqDigits#4,W
0449   1283           02427         bcf STATUS,5
  00000000            02428 ram_bank = 0
                      02429         f@call PRINT
044C   1683           02430         bsf STATUS,5
  00000001            02431 ram_bank = 1
044D   0861           02432         movf FrqDigits#5,W
044E   1283           02433         bcf STATUS,5
  00000000            02434 ram_bank = 0
                      02435         f@call PRINT
0451   1683           02436         bsf STATUS,5
  00000001            02437 ram_bank = 1
0452   0862           02438         movf FrqDigits#6,W
0453   1283           02439         bcf STATUS,5
  00000000            02440 ram_bank = 0
                      02441         f@call PRINT
  00000456            02442 F1_000360 equ $ ; IN [BCC398.BAS] if Degerler[11] = 1 THEN
0456   085F           02443         movf Degerler#11,W
0457   00A7           02444         movwf PBP#VAR0
0458   3001           02445         movlw 1
0459   0227           02446         subwf PBP#VAR0,W
                      02447         set@page BC@LL13
045C   1D03           02448         btfss STATUS,2
045D   2C6C           02449         goto BC@LL13
  0000045E            02450 F1_000361 equ $ ; IN [BCC398.BAS] PRINT AT 1,18,"<>"
045E   3080           02451         movlw 128
045F   00A1           02452         movwf BPFH
0460   3091           02453         movlw 145
                      02454         f@call LCD@CRS
0463   303C           02455         movlw 60
                      02456         f@call PRINT
0466   303E           02457         movlw 62
                      02458         f@call PRINT
                      02459         f@jump BC@LL14
046C                  02460 BC@LL13
  0000046C            02461 F1_000362 equ $ ; IN [BCC398.BAS] else
  0000046C            02462 F1_000363 equ $ ; IN [BCC398.BAS] PRINT AT 1,18,"   "
046C   3080           02463         movlw 128
046D   00A1           02464         movwf BPFH
046E   3091           02465         movlw 145
                      02466         f@call LCD@CRS
0471   3020           02467         movlw 32
                      02468         f@call PRINT
                      02469         f@call PRINT
                      02470         f@call PRINT
  00000478            02471 F1_000364 equ $ ; IN [BCC398.BAS] endif
0478                  02472 BC@LL14
  00000478            02473 F1_000365 equ $ ; IN [BCC398.BAS] if Degerler[10] = 1 THEN
0478   085E           02474         movf Degerler#10,W
0479   00A7           02475         movwf PBP#VAR0
047A   3001           02476         movlw 1
047B   0227           02477         subwf PBP#VAR0,W
                      02478         set@page BC@LL16
047E   1D03           02479         btfss STATUS,2
047F   2C8D           02480         goto BC@LL16
  00000480            02481 F1_000366 equ $ ; IN [BCC398.BAS] PRINT AT 2,1,"PWR : high"
0480   3080           02482         movlw 128
0481   00A1           02483         movwf BPFH
0482   30C0           02484         movlw 192
                      02485         f@call LCD@CRS
0485   3008           02486         movlw ((STR@LB5 >> 8) & 255)
0486   00A6           02487         movwf GEN4H
0487   303A           02488         movlw (STR@LB5 & 255)
                      02489         f@call C@STROUT
                      02490         f@jump BC@LL17
048D                  02491 BC@LL16
  0000048D            02492 F1_000367 equ $ ; IN [BCC398.BAS] else
  0000048D            02493 F1_000368 equ $ ; IN [BCC398.BAS] PRINT AT 2,1,"PWR : low "
048D   3080           02494         movlw 128
048E   00A1           02495         movwf BPFH
048F   30C0           02496         movlw 192
                      02497         f@call LCD@CRS
0492   3008           02498         movlw ((STR@LB6 >> 8) & 255)
0493   00A6           02499         movwf GEN4H
0494   3045           02500         movlw (STR@LB6 & 255)
                      02501         f@call C@STROUT
  00000497            02502 F1_000369 equ $ ; IN [BCC398.BAS] endif
0497                  02503 BC@LL17
  00000497            02504 F1_000370 equ $ ; IN [BCC398.BAS] if Degerler[12] = 1 THEN
0497   0860           02505         movf Degerler#12,W
0498   00A7           02506         movwf PBP#VAR0
0499   3001           02507         movlw 1
049A   0227           02508         subwf PBP#VAR0,W
                      02509         set@page BC@LL19
049D   1D03           02510         btfss STATUS,2
049E   2CAC           02511         goto BC@LL19
  0000049F            02512 F1_000371 equ $ ; IN [BCC398.BAS] PRINT AT 3,1,"MOD : USB "
049F   3080           02513         movlw 128
04A0   00A1           02514         movwf BPFH
04A1   3094           02515         movlw 148
                      02516         f@call LCD@CRS
04A4   3008           02517         movlw ((STR@LB7 >> 8) & 255)
04A5   00A6           02518         movwf GEN4H
04A6   3050           02519         movlw (STR@LB7 & 255)
                      02520         f@call C@STROUT
                      02521         f@jump BC@LL20
04AC                  02522 BC@LL19
  000004AC            02523 F1_000372 equ $ ; IN [BCC398.BAS] else
  000004AC            02524 F1_000373 equ $ ; IN [BCC398.BAS] PRINT AT 3,1,"MOD : LSB "
04AC   3080           02525         movlw 128
04AD   00A1           02526         movwf BPFH
04AE   3094           02527         movlw 148
                      02528         f@call LCD@CRS
04B1   3008           02529         movlw ((STR@LB8 >> 8) & 255)
04B2   00A6           02530         movwf GEN4H
04B3   305B           02531         movlw (STR@LB8 & 255)
                      02532         f@call C@STROUT
  000004B6            02533 F1_000374 equ $ ; IN [BCC398.BAS] endif
04B6                  02534 BC@LL20
  000004B6            02535 F1_000375 equ $ ; IN [BCC398.BAS] if Degerler[45] = 1 THEN
04B6   1683           02536         bsf STATUS,5
  00000001            02537 ram_bank = 1
04B7   0825           02538         movf Degerler#45,W
04B8   1283           02539         bcf STATUS,5
  00000000            02540 ram_bank = 0
04B9   00A7           02541         movwf PBP#VAR0
04BA   3001           02542         movlw 1
04BB   0227           02543         subwf PBP#VAR0,W
                      02544         set@page BC@LL22
04BE   1D03           02545         btfss STATUS,2
04BF   2CD7           02546         goto BC@LL22
  000004C0            02547 F1_000376 equ $ ; IN [BCC398.BAS] PRINT AT 3,11,"(CW) "
04C0   3080           02548         movlw 128
04C1   00A1           02549         movwf BPFH
04C2   309E           02550         movlw 158
                      02551         f@call LCD@CRS
04C5   3028           02552         movlw 40
                      02553         f@call PRINT
04C8   3043           02554         movlw 67
                      02555         f@call PRINT
04CB   3057           02556         movlw 87
                      02557         f@call PRINT
04CE   3029           02558         movlw 41
                      02559         f@call PRINT
04D1   3020           02560         movlw 32
                      02561         f@call PRINT
                      02562         f@jump BC@LL23
04D7                  02563 BC@LL22
  000004D7            02564 F1_000377 equ $ ; IN [BCC398.BAS] else
  000004D7            02565 F1_000378 equ $ ; IN [BCC398.BAS] PRINT AT 3,11,"     "
04D7   3080           02566         movlw 128
04D8   00A1           02567         movwf BPFH
04D9   309E           02568         movlw 158
                      02569         f@call LCD@CRS
04DC   3020           02570         movlw 32
                      02571         f@call PRINT
                      02572         f@call PRINT
                      02573         f@call PRINT
                      02574         f@call PRINT
                      02575         f@call PRINT
  000004E7            02576 F1_000379 equ $ ; IN [BCC398.BAS] endif
04E7                  02577 BC@LL23
  000004E7            02578 F1_000380 equ $ ; IN [BCC398.BAS] PRINT AT 4,1,"KANAL : ",Channel
04E7   3080           02579         movlw 128
04E8   00A1           02580         movwf BPFH
04E9   30D4           02581         movlw 212
                      02582         f@call LCD@CRS
04EC   3008           02583         movlw ((STR@LB9 >> 8) & 255)
04ED   00A6           02584         movwf GEN4H
04EE   3066           02585         movlw (STR@LB9 & 255)
                      02586         f@call C@STROUT
04F1   1683           02587         bsf STATUS,5
  00000001            02588 ram_bank = 1
04F2   0863           02589         movf Channel,W
04F3   1283           02590         bcf STATUS,5
  00000000            02591 ram_bank = 0
                      02592         f@call PRINT
  000004F6            02593 F1_000381 equ $ ; IN [BCC398.BAS] if Degerler[13] = 1 THEN
04F6   0861           02594         movf Degerler#13,W
04F7   00A7           02595         movwf PBP#VAR0
04F8   3001           02596         movlw 1
04F9   0227           02597         subwf PBP#VAR0,W
                      02598         set@page BC@LL25
04FC   1D03           02599         btfss STATUS,2
04FD   2D0C           02600         goto BC@LL25
  000004FE            02601 F1_000382 equ $ ; IN [BCC398.BAS] PRINT AT 4,11, "TX"
04FE   3080           02602         movlw 128
04FF   00A1           02603         movwf BPFH
0500   30DE           02604         movlw 222
                      02605         f@call LCD@CRS
0503   3054           02606         movlw 84
                      02607         f@call PRINT
0506   3058           02608         movlw 88
                      02609         f@call PRINT
                      02610         f@jump BC@LL26
050C                  02611 BC@LL25
  0000050C            02612 F1_000383 equ $ ; IN [BCC398.BAS] else
  0000050C            02613 F1_000384 equ $ ; IN [BCC398.BAS] PRINT AT 4,11, "  "
050C   3080           02614         movlw 128
050D   00A1           02615         movwf BPFH
050E   30DE           02616         movlw 222
                      02617         f@call LCD@CRS
0511   3020           02618         movlw 32
                      02619         f@call PRINT
                      02620         f@call PRINT
  00000516            02621 F1_000385 equ $ ; IN [BCC398.BAS] endif
0516                  02622 BC@LL26
  00000516            02623 F1_000386 equ $ ; IN [BCC398.BAS] if Degerler[47] = 1 THEN
0516   1683           02624         bsf STATUS,5
  00000001            02625 ram_bank = 1
0517   0827           02626         movf Degerler#47,W
0518   1283           02627         bcf STATUS,5
  00000000            02628 ram_bank = 0
0519   00A7           02629         movwf PBP#VAR0
051A   3001           02630         movlw 1
051B   0227           02631         subwf PBP#VAR0,W
                      02632         set@page BC@LL28
051E   1D03           02633         btfss STATUS,2
051F   2D2E           02634         goto BC@LL28
  00000520            02635 F1_000387 equ $ ; IN [BCC398.BAS] PRINT AT 4,14, "RX"
0520   3080           02636         movlw 128
0521   00A1           02637         movwf BPFH
0522   30E1           02638         movlw 225
                      02639         f@call LCD@CRS
0525   3052           02640         movlw 82
                      02641         f@call PRINT
0528   3058           02642         movlw 88
                      02643         f@call PRINT
                      02644         f@jump BC@LL29
052E                  02645 BC@LL28
  0000052E            02646 F1_000388 equ $ ; IN [BCC398.BAS] else
  0000052E            02647 F1_000389 equ $ ; IN [BCC398.BAS] PRINT AT 4,14, "  "
052E   3080           02648         movlw 128
052F   00A1           02649         movwf BPFH
0530   30E1           02650         movlw 225
                      02651         f@call LCD@CRS
0533   3020           02652         movlw 32
                      02653         f@call PRINT
                      02654         f@call PRINT
  00000538            02655 F1_000390 equ $ ; IN [BCC398.BAS] endif
0538                  02656 BC@LL29
  00000538            02657 F1_000391 equ $ ; IN [BCC398.BAS] if Degerler[52] = 1 THEN
0538   1683           02658         bsf STATUS,5
  00000001            02659 ram_bank = 1
0539   082C           02660         movf Degerler#52,W
053A   1283           02661         bcf STATUS,5
  00000000            02662 ram_bank = 0
053B   00A7           02663         movwf PBP#VAR0
053C   3001           02664         movlw 1
053D   0227           02665         subwf PBP#VAR0,W
                      02666         set@page BC@LL31
0540   1D03           02667         btfss STATUS,2
0541   2D4D           02668         goto BC@LL31
  00000542            02669 F1_000392 equ $ ; IN [BCC398.BAS] PRINT AT 3,16, "X"
0542   3080           02670         movlw 128
0543   00A1           02671         movwf BPFH
0544   30A3           02672         movlw 163
                      02673         f@call LCD@CRS
0547   3058           02674         movlw 88
                      02675         f@call PRINT
                      02676         f@jump BC@LL32
054D                  02677 BC@LL31
  0000054D            02678 F1_000393 equ $ ; IN [BCC398.BAS] else
  0000054D            02679 F1_000394 equ $ ; IN [BCC398.BAS] PRINT AT 3,16, " "
054D   3080           02680         movlw 128
054E   00A1           02681         movwf BPFH
054F   30A3           02682         movlw 163
                      02683         f@call LCD@CRS
0552   3020           02684         movlw 32
                      02685         f@call PRINT
  00000555            02686 F1_000395 equ $ ; IN [BCC398.BAS] endif
0555                  02687 BC@LL32
  00000555            02688 F1_000396 equ $ ; IN [BCC398.BAS] if Degerler[51] = 1 THEN
0555   1683           02689         bsf STATUS,5
  00000001            02690 ram_bank = 1
0556   082B           02691         movf Degerler#51,W
0557   1283           02692         bcf STATUS,5
  00000000            02693 ram_bank = 0
0558   00A7           02694         movwf PBP#VAR0
0559   3001           02695         movlw 1
055A   0227           02696         subwf PBP#VAR0,W
                      02697         set@page BC@LL34
055D   1D03           02698         btfss STATUS,2
055E   2D6A           02699         goto BC@LL34
  0000055F            02700 F1_000397 equ $ ; IN [BCC398.BAS] PRINT AT 3,17, "X"
055F   3080           02701         movlw 128
0560   00A1           02702         movwf BPFH
0561   30A4           02703         movlw 164
                      02704         f@call LCD@CRS
0564   3058           02705         movlw 88
                      02706         f@call PRINT
                      02707         f@jump BC@LL35
056A                  02708 BC@LL34
  0000056A            02709 F1_000398 equ $ ; IN [BCC398.BAS] else
  0000056A            02710 F1_000399 equ $ ; IN [BCC398.BAS] PRINT AT 3,17, " "
056A   3080           02711         movlw 128
056B   00A1           02712         movwf BPFH
056C   30A4           02713         movlw 164
                      02714         f@call LCD@CRS
056F   3020           02715         movlw 32
                      02716         f@call PRINT
  00000572            02717 F1_000400 equ $ ; IN [BCC398.BAS] endif
0572                  02718 BC@LL35
  00000572            02719 F1_000401 equ $ ; IN [BCC398.BAS] if Degerler[17] = 1 THEN
0572   0865           02720         movf Degerler#17,W
0573   00A7           02721         movwf PBP#VAR0
0574   3001           02722         movlw 1
0575   0227           02723         subwf PBP#VAR0,W
                      02724         set@page BC@LL37
0578   1D03           02725         btfss STATUS,2
0579   2D85           02726         goto BC@LL37
  0000057A            02727 F1_000402 equ $ ; IN [BCC398.BAS] PRINT AT 3,18, "X"
057A   3080           02728         movlw 128
057B   00A1           02729         movwf BPFH
057C   30A5           02730         movlw 165
                      02731         f@call LCD@CRS
057F   3058           02732         movlw 88
                      02733         f@call PRINT
                      02734         f@jump BC@LL38
0585                  02735 BC@LL37
  00000585            02736 F1_000403 equ $ ; IN [BCC398.BAS] else
  00000585            02737 F1_000404 equ $ ; IN [BCC398.BAS] PRINT AT 3,18, " "
0585   3080           02738         movlw 128
0586   00A1           02739         movwf BPFH
0587   30A5           02740         movlw 165
                      02741         f@call LCD@CRS
058A   3020           02742         movlw 32
                      02743         f@call PRINT
  0000058D            02744 F1_000405 equ $ ; IN [BCC398.BAS] endif
058D                  02745 BC@LL38
  0000058D            02746 F1_000406 equ $ ; IN [BCC398.BAS] if Degerler[18] = 1 THEN
058D   0866           02747         movf Degerler#18,W
058E   00A7           02748         movwf PBP#VAR0
058F   3001           02749         movlw 1
0590   0227           02750         subwf PBP#VAR0,W
                      02751         set@page BC@LL40
0593   1D03           02752         btfss STATUS,2
0594   2DA0           02753         goto BC@LL40
  00000595            02754 F1_000407 equ $ ; IN [BCC398.BAS] PRINT AT 3,19, "X"
0595   3080           02755         movlw 128
0596   00A1           02756         movwf BPFH
0597   30A6           02757         movlw 166
                      02758         f@call LCD@CRS
059A   3058           02759         movlw 88
                      02760         f@call PRINT
                      02761         f@jump BC@LL41
05A0                  02762 BC@LL40
  000005A0            02763 F1_000408 equ $ ; IN [BCC398.BAS] else
  000005A0            02764 F1_000409 equ $ ; IN [BCC398.BAS] PRINT AT 3,19, " "
05A0   3080           02765         movlw 128
05A1   00A1           02766         movwf BPFH
05A2   30A6           02767         movlw 166
                      02768         f@call LCD@CRS
05A5   3020           02769         movlw 32
                      02770         f@call PRINT
  000005A8            02771 F1_000410 equ $ ; IN [BCC398.BAS] endif
05A8                  02772 BC@LL41
  000005A8            02773 F1_000424 equ $ ; IN [BCC398.BAS] Cmd = $80
05A8   3080           02774         movlw 128
05A9   1683           02775         bsf STATUS,5
  00000001            02776 ram_bank = 1
05AA   00E4           02777         movwf Cmd
  000005AB            02778 F1_000425 equ $ ; IN [BCC398.BAS] GOSUB KomutGonder
05AB   1283           02779         bcf STATUS,5
  00000000            02780 ram_bank = 0
                      02781         f@call KomutGonder
  000005AF            02782 F1_000429 equ $ ; IN [BCC398.BAS] Satir="0123456789123456"
05AF   3030           02783         movlw 48
05B0   00C4           02784         movwf Satir#0
05B1   3031           02785         movlw 49
05B2   00C5           02786         movwf Satir#1
05B3   3032           02787         movlw 50
05B4   00C6           02788         movwf Satir#2
05B5   3033           02789         movlw 51
05B6   00C7           02790         movwf Satir#3
05B7   3034           02791         movlw 52
05B8   00C8           02792         movwf Satir#4
05B9   3035           02793         movlw 53
05BA   00C9           02794         movwf Satir#5
05BB   3036           02795         movlw 54
05BC   00CA           02796         movwf Satir#6
05BD   3037           02797         movlw 55
05BE   00CB           02798         movwf Satir#7
05BF   3038           02799         movlw 56
05C0   00CC           02800         movwf Satir#8
05C1   3039           02801         movlw 57
05C2   00CD           02802         movwf Satir#9
05C3   3031           02803         movlw 49
05C4   00CE           02804         movwf Satir#10
05C5   3032           02805         movlw 50
05C6   00CF           02806         movwf Satir#11
05C7   3033           02807         movlw 51
05C8   00D0           02808         movwf Satir#12
05C9   3034           02809         movlw 52
05CA   00D1           02810         movwf Satir#13
05CB   3035           02811         movlw 53
05CC   00D2           02812         movwf Satir#14
05CD   3036           02813         movlw 54
05CE   00D3           02814         movwf Satir#15
  000005CF            02815 F1_000430 equ $ ; IN [BCC398.BAS] GOSUB SatirGonder
                      02816         f@call SatirGonder
  000005D2            02817 F1_000431 equ $ ; IN [BCC398.BAS] DELAYMS 10
05D2   300A           02818         movlw 10
                      02819         f@call __DELAY_MS_
  000005D5            02820 F1_000432 equ $ ; IN [BCC398.BAS] Cmd = $C0
05D5   30C0           02821         movlw 192
05D6   1683           02822         bsf STATUS,5
  00000001            02823 ram_bank = 1
05D7   00E4           02824         movwf Cmd
  000005D8            02825 F1_000433 equ $ ; IN [BCC398.BAS] GOSUB KomutGonder
05D8   1283           02826         bcf STATUS,5
  00000000            02827 ram_bank = 0
                      02828         f@call KomutGonder
  000005DC            02829 F1_000434 equ $ ; IN [BCC398.BAS] DELAYMS 10
05DC   300A           02830         movlw 10
                      02831         f@call __DELAY_MS_
  000005DF            02832 F1_000435 equ $ ; IN [BCC398.BAS] GOSUB SatirGonder
                      02833         f@call SatirGonder
  000005E2            02834 F1_000436 equ $ ; IN [BCC398.BAS] DELAYMS 10
05E2   300A           02835         movlw 10
                      02836         f@call __DELAY_MS_
  000005E5            02837 F1_000460 equ $ ; IN [BCC398.BAS] goto Dongu
                      02838         f@jump Dongu
05E7                  02839 CalcValue
  000005E7            02840 F1_000465 equ $ ; IN [BCC398.BAS] DecValue = Segments[0]+Segments[1]*2+Segments[2]*4+Segments[3]*8+Segments[4]*16+Segments[5]*32+Segments[6]*64
05E7   1683           02841         bsf STATUS,5
  00000001            02842 ram_bank = 1
05E8   0853           02843         movf Segments#0,W
05E9   1283           02844         bcf STATUS,5
  00000000            02845 ram_bank = 0
05EA   00A7           02846         movwf PBP#VAR0
05EB   01BB           02847         clrf PP7H
05EC   0827           02848         movf PBP#VAR0,W
05ED   00BA           02849         movwf PP7
05EE   1683           02850         bsf STATUS,5
  00000001            02851 ram_bank = 1
05EF   0854           02852         movf Segments#1,W
05F0   1283           02853         bcf STATUS,5
  00000000            02854 ram_bank = 0
05F1   00A8           02855         movwf PBP#VAR1
05F2   01BD           02856         clrf PP8H
05F3   0828           02857         movf PBP#VAR1,W
05F4   00BC           02858         movwf PP8
05F5   1003           02859         bcf STATUS,0
05F6   0DBC           02860         rlf PP8,F
05F7   0DBD           02861         rlf PP8H,F
05F8   083C           02862         movf PP8,W
05F9   07BA           02863         addwf PP7,F
05FA   083D           02864         movf PP8H,W
05FB   1803           02865         btfsc STATUS,0
05FC   3E01           02866         addlw 1
05FD   07BB           02867         addwf PP7H,F
05FE   1683           02868         bsf STATUS,5
  00000001            02869 ram_bank = 1
05FF   0855           02870         movf Segments#2,W
0600   1283           02871         bcf STATUS,5
  00000000            02872 ram_bank = 0
0601   00A9           02873         movwf PBP#VAR2
0602   01BD           02874         clrf PP8H
0603   0829           02875         movf PBP#VAR2,W
0604   00BC           02876         movwf PP8
0605   0DBC           02877         rlf PP8,F
0606   0DBD           02878         rlf PP8H,F
0607   0DBC           02879         rlf PP8,F
0608   0DBD           02880         rlf PP8H,F
0609   30FC           02881         movlw 252
060A   05BC           02882         andwf PP8,F
060B   083C           02883         movf PP8,W
060C   07BA           02884         addwf PP7,F
060D   083D           02885         movf PP8H,W
060E   1803           02886         btfsc STATUS,0
060F   3E01           02887         addlw 1
0610   07BB           02888         addwf PP7H,F
0611   1683           02889         bsf STATUS,5
  00000001            02890 ram_bank = 1
0612   0856           02891         movf Segments#3,W
0613   1283           02892         bcf STATUS,5
  00000000            02893 ram_bank = 0
0614   00AA           02894         movwf PBP#VAR3
0615   01BD           02895         clrf PP8H
0616   082A           02896         movf PBP#VAR3,W
0617   00BC           02897         movwf PP8
0618   3003           02898         movlw 3
0619   00AE           02899         movwf PP0
061A                  02900 M@LB2
061A   1003           02901         bcf STATUS,0
061B   0DBC           02902         rlf PP8,F
061C   0DBD           02903         rlf PP8H,F
061D   03AE           02904         decf PP0,F
                      02905         set@page M@LB2
0620   1D03           02906         btfss STATUS,2
0621   2E1A           02907         goto M@LB2
0622   083C           02908         movf PP8,W
0623   07BA           02909         addwf PP7,F
0624   083D           02910         movf PP8H,W
0625   1803           02911         btfsc STATUS,0
0626   3E01           02912         addlw 1
0627   07BB           02913         addwf PP7H,F
0628   1683           02914         bsf STATUS,5
  00000001            02915 ram_bank = 1
0629   0857           02916         movf Segments#4,W
062A   1283           02917         bcf STATUS,5
  00000000            02918 ram_bank = 0
062B   00AB           02919         movwf PBP#VAR4
062C   01BD           02920         clrf PP8H
062D   082B           02921         movf PBP#VAR4,W
062E   00BC           02922         movwf PP8
062F   3004           02923         movlw 4
0630   00AE           02924         movwf PP0
0631                  02925 M@LB3
0631   1003           02926         bcf STATUS,0
0632   0DBC           02927         rlf PP8,F
0633   0DBD           02928         rlf PP8H,F
0634   03AE           02929         decf PP0,F
                      02930         set@page M@LB3
0637   1D03           02931         btfss STATUS,2
0638   2E31           02932         goto M@LB3
0639   083C           02933         movf PP8,W
063A   07BA           02934         addwf PP7,F
063B   083D           02935         movf PP8H,W
063C   1803           02936         btfsc STATUS,0
063D   3E01           02937         addlw 1
063E   07BB           02938         addwf PP7H,F
063F   1683           02939         bsf STATUS,5
  00000001            02940 ram_bank = 1
0640   0858           02941         movf Segments#5,W
0641   1283           02942         bcf STATUS,5
  00000000            02943 ram_bank = 0
0642   00AC           02944         movwf PBP#VAR5
0643   01BD           02945         clrf PP8H
0644   082C           02946         movf PBP#VAR5,W
0645   00BC           02947         movwf PP8
0646   3005           02948         movlw 5
0647   00AE           02949         movwf PP0
0648                  02950 M@LB4
0648   1003           02951         bcf STATUS,0
0649   0DBC           02952         rlf PP8,F
064A   0DBD           02953         rlf PP8H,F
064B   03AE           02954         decf PP0,F
                      02955         set@page M@LB4
064E   1D03           02956         btfss STATUS,2
064F   2E48           02957         goto M@LB4
0650   083C           02958         movf PP8,W
0651   07BA           02959         addwf PP7,F
0652   083D           02960         movf PP8H,W
0653   1803           02961         btfsc STATUS,0
0654   3E01           02962         addlw 1
0655   07BB           02963         addwf PP7H,F
0656   1683           02964         bsf STATUS,5
  00000001            02965 ram_bank = 1
0657   0859           02966         movf Segments#6,W
0658   1283           02967         bcf STATUS,5
  00000000            02968 ram_bank = 0
0659   00AD           02969         movwf PBP#VAR6
065A   01BD           02970         clrf PP8H
065B   082D           02971         movf PBP#VAR6,W
065C   00BC           02972         movwf PP8
065D   3006           02973         movlw 6
065E   00AE           02974         movwf PP0
065F                  02975 M@LB5
065F   1003           02976         bcf STATUS,0
0660   0DBC           02977         rlf PP8,F
0661   0DBD           02978         rlf PP8H,F
0662   03AE           02979         decf PP0,F
                      02980         set@page M@LB5
0665   1D03           02981         btfss STATUS,2
0666   2E5F           02982         goto M@LB5
0667   083A           02983         movf PP7,W
0668   073C           02984         addwf PP8,W
0669   1683           02985         bsf STATUS,5
  00000001            02986 ram_bank = 1
066A   00DA           02987         movwf DecValue
  0000066B            02988 F1_000466 equ $ ; IN [BCC398.BAS] ResValue = "-"
066B   302D           02989         movlw 45
066C   00DB           02990         movwf ResValue
  0000066D            02991 F1_000467 equ $ ; IN [BCC398.BAS] if DecValue = 0   THEN ResValue = " "
066D   08DA           02992         movf DecValue,F
                      02993         set@page BC@LL43
0670   1283           02994         bcf STATUS,5
  00000000            02995 ram_bank = 0
0671   1D03           02996         btfss STATUS,2
0672   2E76           02997         goto BC@LL43
0673   3020           02998         movlw 32
0674   1683           02999         bsf STATUS,5
  00000001            03000 ram_bank = 1
0675   00DB           03001         movwf ResValue
0676                  03002 BC@LL43
0676   1283           03003         bcf STATUS,5
  00000000            03004 ram_bank = 0
  00000677            03005 F1_000468 equ $ ; IN [BCC398.BAS] if DecValue = 63  THEN ResValue = "0"
0677   303F           03006         movlw 63
0678   1683           03007         bsf STATUS,5
  00000001            03008 ram_bank = 1
0679   025A           03009         subwf DecValue,W
                      03010         set@page BC@LL45
067C   1283           03011         bcf STATUS,5
  00000000            03012 ram_bank = 0
067D   1D03           03013         btfss STATUS,2
067E   2E82           03014         goto BC@LL45
067F   3030           03015         movlw 48
0680   1683           03016         bsf STATUS,5
  00000001            03017 ram_bank = 1
0681   00DB           03018         movwf ResValue
0682                  03019 BC@LL45
0682   1283           03020         bcf STATUS,5
  00000000            03021 ram_bank = 0
  00000683            03022 F1_000469 equ $ ; IN [BCC398.BAS] if DecValue = 6   THEN ResValue = "1"
0683   3006           03023         movlw 6
0684   1683           03024         bsf STATUS,5
  00000001            03025 ram_bank = 1
0685   025A           03026         subwf DecValue,W
                      03027         set@page BC@LL47
0688   1283           03028         bcf STATUS,5
  00000000            03029 ram_bank = 0
0689   1D03           03030         btfss STATUS,2
068A   2E8E           03031         goto BC@LL47
068B   3031           03032         movlw 49
068C   1683           03033         bsf STATUS,5
  00000001            03034 ram_bank = 1
068D   00DB           03035         movwf ResValue
068E                  03036 BC@LL47
068E   1283           03037         bcf STATUS,5
  00000000            03038 ram_bank = 0
  0000068F            03039 F1_000470 equ $ ; IN [BCC398.BAS] if DecValue = 91  THEN ResValue = "2"
068F   305B           03040         movlw 91
0690   1683           03041         bsf STATUS,5
  00000001            03042 ram_bank = 1
0691   025A           03043         subwf DecValue,W
                      03044         set@page BC@LL49
0694   1283           03045         bcf STATUS,5
  00000000            03046 ram_bank = 0
0695   1D03           03047         btfss STATUS,2
0696   2E9A           03048         goto BC@LL49
0697   3032           03049         movlw 50
0698   1683           03050         bsf STATUS,5
  00000001            03051 ram_bank = 1
0699   00DB           03052         movwf ResValue
069A                  03053 BC@LL49
069A   1283           03054         bcf STATUS,5
  00000000            03055 ram_bank = 0
  0000069B            03056 F1_000471 equ $ ; IN [BCC398.BAS] if DecValue = 79  THEN ResValue = "3"
069B   304F           03057         movlw 79
069C   1683           03058         bsf STATUS,5
  00000001            03059 ram_bank = 1
069D   025A           03060         subwf DecValue,W
                      03061         set@page BC@LL51
06A0   1283           03062         bcf STATUS,5
  00000000            03063 ram_bank = 0
06A1   1D03           03064         btfss STATUS,2
06A2   2EA6           03065         goto BC@LL51
06A3   3033           03066         movlw 51
06A4   1683           03067         bsf STATUS,5
  00000001            03068 ram_bank = 1
06A5   00DB           03069         movwf ResValue
06A6                  03070 BC@LL51
06A6   1283           03071         bcf STATUS,5
  00000000            03072 ram_bank = 0
  000006A7            03073 F1_000472 equ $ ; IN [BCC398.BAS] if DecValue = 102 THEN ResValue = "4"
06A7   3066           03074         movlw 102
06A8   1683           03075         bsf STATUS,5
  00000001            03076 ram_bank = 1
06A9   025A           03077         subwf DecValue,W
                      03078         set@page BC@LL53
06AC   1283           03079         bcf STATUS,5
  00000000            03080 ram_bank = 0
06AD   1D03           03081         btfss STATUS,2
06AE   2EB2           03082         goto BC@LL53
06AF   3034           03083         movlw 52
06B0   1683           03084         bsf STATUS,5
  00000001            03085 ram_bank = 1
06B1   00DB           03086         movwf ResValue
06B2                  03087 BC@LL53
06B2   1283           03088         bcf STATUS,5
  00000000            03089 ram_bank = 0
  000006B3            03090 F1_000473 equ $ ; IN [BCC398.BAS] if DecValue = 109 THEN ResValue = "5"
06B3   306D           03091         movlw 109
06B4   1683           03092         bsf STATUS,5
  00000001            03093 ram_bank = 1
06B5   025A           03094         subwf DecValue,W
                      03095         set@page BC@LL55
06B8   1283           03096         bcf STATUS,5
  00000000            03097 ram_bank = 0
06B9   1D03           03098         btfss STATUS,2
06BA   2EBE           03099         goto BC@LL55
06BB   3035           03100         movlw 53
06BC   1683           03101         bsf STATUS,5
  00000001            03102 ram_bank = 1
06BD   00DB           03103         movwf ResValue
06BE                  03104 BC@LL55
06BE   1283           03105         bcf STATUS,5
  00000000            03106 ram_bank = 0
  000006BF            03107 F1_000474 equ $ ; IN [BCC398.BAS] if DecValue = 125 THEN ResValue = "6"
06BF   307D           03108         movlw 125
06C0   1683           03109         bsf STATUS,5
  00000001            03110 ram_bank = 1
06C1   025A           03111         subwf DecValue,W
                      03112         set@page BC@LL57
06C4   1283           03113         bcf STATUS,5
  00000000            03114 ram_bank = 0
06C5   1D03           03115         btfss STATUS,2
06C6   2ECA           03116         goto BC@LL57
06C7   3036           03117         movlw 54
06C8   1683           03118         bsf STATUS,5
  00000001            03119 ram_bank = 1
06C9   00DB           03120         movwf ResValue
06CA                  03121 BC@LL57
06CA   1283           03122         bcf STATUS,5
  00000000            03123 ram_bank = 0
  000006CB            03124 F1_000475 equ $ ; IN [BCC398.BAS] if DecValue = 7   THEN ResValue = "7"
06CB   3007           03125         movlw 7
06CC   1683           03126         bsf STATUS,5
  00000001            03127 ram_bank = 1
06CD   025A           03128         subwf DecValue,W
                      03129         set@page BC@LL59
06D0   1283           03130         bcf STATUS,5
  00000000            03131 ram_bank = 0
06D1   1D03           03132         btfss STATUS,2
06D2   2ED6           03133         goto BC@LL59
06D3   3037           03134         movlw 55
06D4   1683           03135         bsf STATUS,5
  00000001            03136 ram_bank = 1
06D5   00DB           03137         movwf ResValue
06D6                  03138 BC@LL59
06D6   1283           03139         bcf STATUS,5
  00000000            03140 ram_bank = 0
  000006D7            03141 F1_000476 equ $ ; IN [BCC398.BAS] if DecValue = 127 THEN ResValue = "8"
06D7   307F           03142         movlw 127
06D8   1683           03143         bsf STATUS,5
  00000001            03144 ram_bank = 1
06D9   025A           03145         subwf DecValue,W
                      03146         set@page BC@LL61
06DC   1283           03147         bcf STATUS,5
  00000000            03148 ram_bank = 0
06DD   1D03           03149         btfss STATUS,2
06DE   2EE2           03150         goto BC@LL61
06DF   3038           03151         movlw 56
06E0   1683           03152         bsf STATUS,5
  00000001            03153 ram_bank = 1
06E1   00DB           03154         movwf ResValue
06E2                  03155 BC@LL61
06E2   1283           03156         bcf STATUS,5
  00000000            03157 ram_bank = 0
  000006E3            03158 F1_000477 equ $ ; IN [BCC398.BAS] if DecValue = 111 THEN ResValue = "9"
06E3   306F           03159         movlw 111
06E4   1683           03160         bsf STATUS,5
  00000001            03161 ram_bank = 1
06E5   025A           03162         subwf DecValue,W
                      03163         set@page BC@LL63
06E8   1283           03164         bcf STATUS,5
  00000000            03165 ram_bank = 0
06E9   1D03           03166         btfss STATUS,2
06EA   2EEE           03167         goto BC@LL63
06EB   3039           03168         movlw 57
06EC   1683           03169         bsf STATUS,5
  00000001            03170 ram_bank = 1
06ED   00DB           03171         movwf ResValue
06EE                  03172 BC@LL63
06EE   1283           03173         bcf STATUS,5
  00000000            03174 ram_bank = 0
  000006EF            03175 F1_000478 equ $ ; IN [BCC398.BAS] if DecValue = 120 THEN ResValue = "U"
06EF   3078           03176         movlw 120
06F0   1683           03177         bsf STATUS,5
  00000001            03178 ram_bank = 1
06F1   025A           03179         subwf DecValue,W
                      03180         set@page BC@LL65
06F4   1283           03181         bcf STATUS,5
  00000000            03182 ram_bank = 0
06F5   1D03           03183         btfss STATUS,2
06F6   2EFA           03184         goto BC@LL65
06F7   3055           03185         movlw 85
06F8   1683           03186         bsf STATUS,5
  00000001            03187 ram_bank = 1
06F9   00DB           03188         movwf ResValue
06FA                  03189 BC@LL65
06FA   1283           03190         bcf STATUS,5
  00000000            03191 ram_bank = 0
  000006FB            03192 F1_000479 equ $ ; IN [BCC398.BAS] if DecValue = 28  THEN ResValue = "U"
06FB   301C           03193         movlw 28
06FC   1683           03194         bsf STATUS,5
  00000001            03195 ram_bank = 1
06FD   025A           03196         subwf DecValue,W
                      03197         set@page BC@LL67
0700   1283           03198         bcf STATUS,5
  00000000            03199 ram_bank = 0
0701   1D03           03200         btfss STATUS,2
0702   2F06           03201         goto BC@LL67
0703   3055           03202         movlw 85
0704   1683           03203         bsf STATUS,5
  00000001            03204 ram_bank = 1
0705   00DB           03205         movwf ResValue
0706                  03206 BC@LL67
0706   1283           03207         bcf STATUS,5
  00000000            03208 ram_bank = 0
  00000707            03209 F1_000480 equ $ ; IN [BCC398.BAS] if DecValue = 84  THEN ResValue = "N"
0707   3054           03210         movlw 84
0708   1683           03211         bsf STATUS,5
  00000001            03212 ram_bank = 1
0709   025A           03213         subwf DecValue,W
                      03214         set@page BC@LL69
070C   1283           03215         bcf STATUS,5
  00000000            03216 ram_bank = 0
070D   1D03           03217         btfss STATUS,2
070E   2F12           03218         goto BC@LL69
070F   306E           03219         movlw 110
0710   1683           03220         bsf STATUS,5
  00000001            03221 ram_bank = 1
0711   00DB           03222         movwf ResValue
0712                  03223 BC@LL69
0712   1283           03224         bcf STATUS,5
  00000000            03225 ram_bank = 0
  00000713            03226 F1_000481 equ $ ; IN [BCC398.BAS] if DecValue = 88  THEN ResValue = "E"
0713   3058           03227         movlw 88
0714   1683           03228         bsf STATUS,5
  00000001            03229 ram_bank = 1
0715   025A           03230         subwf DecValue,W
                      03231         set@page BC@LL71
0718   1283           03232         bcf STATUS,5
  00000000            03233 ram_bank = 0
0719   1D03           03234         btfss STATUS,2
071A   2F1E           03235         goto BC@LL71
071B   3065           03236         movlw 101
071C   1683           03237         bsf STATUS,5
  00000001            03238 ram_bank = 1
071D   00DB           03239         movwf ResValue
071E                  03240 BC@LL71
071E   1283           03241         bcf STATUS,5
  00000000            03242 ram_bank = 0
  0000071F            03243 F1_000497 equ $ ; IN [BCC398.BAS] return
071F   0008           03244         return
0720                  03245 KomutGonder
  00000720            03246 F1_000501 equ $ ; IN [BCC398.BAS] low SDA
0720   1683           03247         bsf STATUS,5
  00000001            03248 ram_bank = 1
0721   1207           03249         bcf TRISC,4
0722   1283           03250         bcf STATUS,5
  00000000            03251 ram_bank = 0
0723   1207           03252         bcf PORTC,4
  00000724            03253 F1_000502 equ $ ; IN [BCC398.BAS] DELAYUS 10
0724   3008           03254         movlw 8
0725   00AE           03255         movwf PP0
                      03256         set@page ID@LB72
0728                  03257 ID@LB72
0728   0BAE           03258         decfsz PP0,F
0729   2F28           03259         goto ID@LB72
  0000072A            03260 F1_000503 equ $ ; IN [BCC398.BAS] low SCL
072A   1683           03261         bsf STATUS,5
  00000001            03262 ram_bank = 1
072B   1187           03263         bcf TRISC,3
072C   1283           03264         bcf STATUS,5
  00000000            03265 ram_bank = 0
072D   1187           03266         bcf PORTC,3
  0000072E            03267 F1_000504 equ $ ; IN [BCC398.BAS] DELAYUS 10
072E   3008           03268         movlw 8
072F   00AE           03269         movwf PP0
                      03270         set@page ID@LB73
0732                  03271 ID@LB73
0732   0BAE           03272         decfsz PP0,F
0733   2F32           03273         goto ID@LB73
  00000734            03274 F1_000506 equ $ ; IN [BCC398.BAS] DATAm = $78
0734   3078           03275         movlw 120
0735   1683           03276         bsf STATUS,5
  00000001            03277 ram_bank = 1
0736   00E6           03278         movwf DATAm
  00000737            03279 F1_000507 equ $ ; IN [BCC398.BAS] GOSUB Gonder
0737   1283           03280         bcf STATUS,5
  00000000            03281 ram_bank = 0
                      03282         f@call Gonder
  0000073B            03283 F1_000508 equ $ ; IN [BCC398.BAS] DATAm = $80
073B   3080           03284         movlw 128
073C   1683           03285         bsf STATUS,5
  00000001            03286 ram_bank = 1
073D   00E6           03287         movwf DATAm
  0000073E            03288 F1_000509 equ $ ; IN [BCC398.BAS] GOSUB Gonder
073E   1283           03289         bcf STATUS,5
  00000000            03290 ram_bank = 0
                      03291         f@call Gonder
  00000742            03292 F1_000510 equ $ ; IN [BCC398.BAS] DATAm = Cmd
0742   1683           03293         bsf STATUS,5
  00000001            03294 ram_bank = 1
0743   0864           03295         movf Cmd,W
0744   00E6           03296         movwf DATAm
  00000745            03297 F1_000511 equ $ ; IN [BCC398.BAS] GOSUB Gonder
0745   1283           03298         bcf STATUS,5
  00000000            03299 ram_bank = 0
                      03300         f@call Gonder
  00000749            03301 F1_000514 equ $ ; IN [BCC398.BAS] high SCL
0749   1683           03302         bsf STATUS,5
  00000001            03303 ram_bank = 1
074A   1187           03304         bcf TRISC,3
074B   1283           03305         bcf STATUS,5
  00000000            03306 ram_bank = 0
074C   1587           03307         bsf PORTC,3
  0000074D            03308 F1_000515 equ $ ; IN [BCC398.BAS] DELAYUS 1
074D   0000           03309         nop
074E   0000           03310         nop
  0000074F            03311 F1_000516 equ $ ; IN [BCC398.BAS] high SDA
074F   1683           03312         bsf STATUS,5
  00000001            03313 ram_bank = 1
0750   1207           03314         bcf TRISC,4
0751   1283           03315         bcf STATUS,5
  00000000            03316 ram_bank = 0
0752   1607           03317         bsf PORTC,4
  00000753            03318 F1_000521 equ $ ; IN [BCC398.BAS] return
0753   0008           03319         return
0754                  03320 DataGonder
  00000754            03321 F1_000525 equ $ ; IN [BCC398.BAS] low SDA
0754   1683           03322         bsf STATUS,5
  00000001            03323 ram_bank = 1
0755   1207           03324         bcf TRISC,4
0756   1283           03325         bcf STATUS,5
  00000000            03326 ram_bank = 0
0757   1207           03327         bcf PORTC,4
  00000758            03328 F1_000526 equ $ ; IN [BCC398.BAS] DELAYUS 10
0758   3008           03329         movlw 8
0759   00AE           03330         movwf PP0
                      03331         set@page ID@LB74
075C                  03332 ID@LB74
075C   0BAE           03333         decfsz PP0,F
075D   2F5C           03334         goto ID@LB74
  0000075E            03335 F1_000527 equ $ ; IN [BCC398.BAS] low SCL
075E   1683           03336         bsf STATUS,5
  00000001            03337 ram_bank = 1
075F   1187           03338         bcf TRISC,3
0760   1283           03339         bcf STATUS,5
  00000000            03340 ram_bank = 0
0761   1187           03341         bcf PORTC,3
  00000762            03342 F1_000528 equ $ ; IN [BCC398.BAS] DELAYUS 10
0762   3008           03343         movlw 8
0763   00AE           03344         movwf PP0
                      03345         set@page ID@LB75
0766                  03346 ID@LB75
0766   0BAE           03347         decfsz PP0,F
0767   2F66           03348         goto ID@LB75
  00000768            03349 F1_000530 equ $ ; IN [BCC398.BAS] DATAm = $78
0768   3078           03350         movlw 120
0769   1683           03351         bsf STATUS,5
  00000001            03352 ram_bank = 1
076A   00E6           03353         movwf DATAm
  0000076B            03354 F1_000531 equ $ ; IN [BCC398.BAS] GOSUB Gonder
076B   1283           03355         bcf STATUS,5
  00000000            03356 ram_bank = 0
                      03357         f@call Gonder
  0000076F            03358 F1_000532 equ $ ; IN [BCC398.BAS] DATAm = $40
076F   3040           03359         movlw 64
0770   1683           03360         bsf STATUS,5
  00000001            03361 ram_bank = 1
0771   00E6           03362         movwf DATAm
  00000772            03363 F1_000533 equ $ ; IN [BCC398.BAS] GOSUB Gonder
0772   1283           03364         bcf STATUS,5
  00000000            03365 ram_bank = 0
                      03366         f@call Gonder
  00000776            03367 F1_000534 equ $ ; IN [BCC398.BAS] DATAm = LcdData
0776   1683           03368         bsf STATUS,5
  00000001            03369 ram_bank = 1
0777   0865           03370         movf LcdData,W
0778   00E6           03371         movwf DATAm
  00000779            03372 F1_000535 equ $ ; IN [BCC398.BAS] GOSUB Gonder
0779   1283           03373         bcf STATUS,5
  00000000            03374 ram_bank = 0
                      03375         f@call Gonder
  0000077D            03376 F1_000538 equ $ ; IN [BCC398.BAS] high SCL
077D   1683           03377         bsf STATUS,5
  00000001            03378 ram_bank = 1
077E   1187           03379         bcf TRISC,3
077F   1283           03380         bcf STATUS,5
  00000000            03381 ram_bank = 0
0780   1587           03382         bsf PORTC,3
  00000781            03383 F1_000539 equ $ ; IN [BCC398.BAS] DELAYUS 1
0781   0000           03384         nop
0782   0000           03385         nop
  00000783            03386 F1_000540 equ $ ; IN [BCC398.BAS] high SDA
0783   1683           03387         bsf STATUS,5
  00000001            03388 ram_bank = 1
0784   1207           03389         bcf TRISC,4
0785   1283           03390         bcf STATUS,5
  00000000            03391 ram_bank = 0
0786   1607           03392         bsf PORTC,4
  00000787            03393 F1_000542 equ $ ; IN [BCC398.BAS] return
0787   0008           03394         return
0788                  03395 Gonder
  00000788            03396 F1_000548 equ $ ; IN [BCC398.BAS] FOR don = 1 TO 8
0788   3001           03397         movlw 1
0789   1683           03398         bsf STATUS,5
  00000001            03399 ram_bank = 1
078A   00E7           03400         movwf don
078B                  03401 FR@LB76
078B   1283           03402         bcf STATUS,5
  00000000            03403 ram_bank = 0
078C   3009           03404         movlw 9
078D   1683           03405         bsf STATUS,5
  00000001            03406 ram_bank = 1
078E   0267           03407         subwf don,W
                      03408         set@page NX@LB77
0791   1283           03409         bcf STATUS,5
  00000000            03410 ram_bank = 0
0792   1803           03411         btfsc STATUS,0
0793   2FC0           03412         goto NX@LB77
  00000794            03413 F1_000549 equ $ ; IN [BCC398.BAS] if DATAm.7 = 0 THEN
                      03414         set@page BC@LL80
0796   1683           03415         bsf STATUS,5
  00000001            03416 ram_bank = 1
0797   0D66           03417         rlf DATAm,W
0798   1283           03418         bcf STATUS,5
  00000000            03419 ram_bank = 0
0799   1803           03420         btfsc STATUS,0
079A   2FA2           03421         goto BC@LL80
  0000079B            03422 F1_000550 equ $ ; IN [BCC398.BAS] low SDA
079B   1683           03423         bsf STATUS,5
  00000001            03424 ram_bank = 1
079C   1207           03425         bcf TRISC,4
079D   1283           03426         bcf STATUS,5
  00000000            03427 ram_bank = 0
079E   1207           03428         bcf PORTC,4
                      03429         f@jump BC@LL81
07A2                  03430 BC@LL80
  000007A2            03431 F1_000551 equ $ ; IN [BCC398.BAS] else
  000007A2            03432 F1_000552 equ $ ; IN [BCC398.BAS] high SDA
07A2   1683           03433         bsf STATUS,5
  00000001            03434 ram_bank = 1
07A3   1207           03435         bcf TRISC,4
07A4   1283           03436         bcf STATUS,5
  00000000            03437 ram_bank = 0
07A5   1607           03438         bsf PORTC,4
  000007A6            03439 F1_000553 equ $ ; IN [BCC398.BAS] endif
07A6                  03440 BC@LL81
  000007A6            03441 F1_000554 equ $ ; IN [BCC398.BAS] DATAm = DATAm << 1
07A6   1003           03442         bcf STATUS,0
07A7   1683           03443         bsf STATUS,5
  00000001            03444 ram_bank = 1
07A8   0DE6           03445         rlf DATAm,F
  000007A9            03446 F1_000555 equ $ ; IN [BCC398.BAS] DELAYUS 1
07A9   0000           03447         nop
07AA   0000           03448         nop
  000007AB            03449 F1_000556 equ $ ; IN [BCC398.BAS] high SCL
07AB   1187           03450         bcf TRISC,3
07AC   1283           03451         bcf STATUS,5
  00000000            03452 ram_bank = 0
07AD   1587           03453         bsf PORTC,3
  000007AE            03454 F1_000557 equ $ ; IN [BCC398.BAS] DELAYUS 9
07AE   3007           03455         movlw 7
07AF   00AE           03456         movwf PP0
                      03457         set@page ID@LB82
07B2                  03458 ID@LB82
07B2   0BAE           03459         decfsz PP0,F
07B3   2FB2           03460         goto ID@LB82
  000007B4            03461 F1_000558 equ $ ; IN [BCC398.BAS] low SCL
07B4   1683           03462         bsf STATUS,5
  00000001            03463 ram_bank = 1
07B5   1187           03464         bcf TRISC,3
07B6   1283           03465         bcf STATUS,5
  00000000            03466 ram_bank = 0
07B7   1187           03467         bcf PORTC,3
07B8                  03468 CT@LB78
  000007B8            03469 F1_000559 equ $ ; IN [BCC398.BAS] NEXT don
07B8   3001           03470         movlw 1
07B9   1683           03471         bsf STATUS,5
  00000001            03472 ram_bank = 1
07BA   07E7           03473         addwf don,F
                      03474         set@page FR@LB76
07BD   1283           03475         bcf STATUS,5
  00000000            03476 ram_bank = 0
07BE   1C03           03477         btfss STATUS,0
07BF   2F8B           03478         goto FR@LB76
07C0                  03479 NX@LB77
  000007C0            03480 F1_000562 equ $ ; IN [BCC398.BAS] DELAYUS 1
07C0   0000           03481         nop
07C1   0000           03482         nop
  000007C2            03483 F1_000563 equ $ ; IN [BCC398.BAS] high SCL
07C2   1683           03484         bsf STATUS,5
  00000001            03485 ram_bank = 1
07C3   1187           03486         bcf TRISC,3
07C4   1283           03487         bcf STATUS,5
  00000000            03488 ram_bank = 0
07C5   1587           03489         bsf PORTC,3
  000007C6            03490 F1_000564 equ $ ; IN [BCC398.BAS] DELAYUS 9
07C6   3007           03491         movlw 7
07C7   00AE           03492         movwf PP0
                      03493         set@page ID@LB83
07CA                  03494 ID@LB83
07CA   0BAE           03495         decfsz PP0,F
07CB   2FCA           03496         goto ID@LB83
  000007CC            03497 F1_000565 equ $ ; IN [BCC398.BAS] low SCL
07CC   1683           03498         bsf STATUS,5
  00000001            03499 ram_bank = 1
07CD   1187           03500         bcf TRISC,3
07CE   1283           03501         bcf STATUS,5
  00000000            03502 ram_bank = 0
07CF   1187           03503         bcf PORTC,3
  000007D0            03504 F1_000566 equ $ ; IN [BCC398.BAS] return
07D0   0008           03505         return
07D1                  03506 SatirGonder
  000007D1            03507 F1_000572 equ $ ; IN [BCC398.BAS] FOR say = 0 TO 15
07D1   1683           03508         bsf STATUS,5
  00000001            03509 ram_bank = 1
07D2   01D2           03510         clrf say
07D3                  03511 FR@LB84
07D3   1283           03512         bcf STATUS,5
  00000000            03513 ram_bank = 0
07D4   3010           03514         movlw 16
07D5   1683           03515         bsf STATUS,5
  00000001            03516 ram_bank = 1
07D6   0252           03517         subwf say,W
                      03518         set@page NX@LB85
07D9   1283           03519         bcf STATUS,5
  00000000            03520 ram_bank = 0
07DA   1803           03521         btfsc STATUS,0
07DB   2FF3           03522         goto NX@LB85
  000007DC            03523 F1_000573 equ $ ; IN [BCC398.BAS] LcdData = Satir[say]
07DC   1683           03524         bsf STATUS,5
  00000001            03525 ram_bank = 1
07DD   0852           03526         movf say,W
07DE   3E44           03527         addlw Satir
07DF   0084           03528         movwf FSR
07E0   0800           03529         movf INDF,W
07E1   00E5           03530         movwf LcdData
  000007E2            03531 F1_000574 equ $ ; IN [BCC398.BAS] GOSUB DataGonder
07E2   1283           03532         bcf STATUS,5
  00000000            03533 ram_bank = 0
                      03534         f@call DataGonder
  000007E5            03535 F1_000575 equ $ ; IN [BCC398.BAS] DELAYUS 10
07E5   3008           03536         movlw 8
07E6   00AE           03537         movwf PP0
                      03538         set@page ID@LB87
07E9                  03539 ID@LB87
07E9   0BAE           03540         decfsz PP0,F
07EA   2FE9           03541         goto ID@LB87
07EB                  03542 CT@LB86
  000007EB            03543 F1_000576 equ $ ; IN [BCC398.BAS] NEXT say
07EB   3001           03544         movlw 1
07EC   1683           03545         bsf STATUS,5
  00000001            03546 ram_bank = 1
07ED   07D2           03547         addwf say,F
                      03548         set@page FR@LB84
07F0   1283           03549         bcf STATUS,5
  00000000            03550 ram_bank = 0
07F1   1C03           03551         btfss STATUS,0
07F2   2FD3           03552         goto FR@LB84
07F3                  03553 NX@LB85
  000007F3            03554 F1_000578 equ $ ; IN [BCC398.BAS] return
07F3   0008           03555         return
  000007F4            03556 F1_000585 equ $ ; IN [BCC398.BAS] end
07F4                  03557 PB@LB88
                      03558         f@jump PB@LB88
  000007F6            03559 F1_EOF equ $ ; BCC398.BAS
07F6                  03560 PB@LB89
                      03561         f@jump PB@LB89
07F8                  03563 STR@LB1
07F8   0020 0020 0020 03564         de 32,32,32,32,82,65,67,65,76,32,66,67,67,51,57,66,0
       0020 0052 0041 
       0043 0041 004C 
       0020 0042 0043 
       0043 0033 0039 
       0042 0000 
0809                  03565 STR@LB2
0809   0020 0028 0043 03566         de 32,40,67,41,50,48,49,53,32,84,65,55,87,32,66,97,114,105,115,0
       0029 0032 0030 
       0031 0035 0020 
       0054 0041 0037 
       0057 0020 0042 
       0061 0072 0069 
       0073 0000 
081D                  03567 STR@LB3
081D   0020 0020 0044 03568         de 32,32,68,73,83,80,76,65,89,32,84,69,83,84,73,78,71,0
       0049 0053 0050 
       004C 0041 0059 
       0020 0054 0045 
       0053 0054 0049 
       004E 0047 0000 
082F                  03569 STR@LB4
082F   0046 0072 0065 03570         de 70,114,101,107,97,110,115,32,58,32,0
       006B 0061 006E 
       0073 0020 003A 
       0020 0000 
083A                  03571 STR@LB5
083A   0050 0057 0052 03572         de 80,87,82,32,58,32,72,73,71,72,0
       0020 003A 0020 
       0048 0049 0047 
       0048 0000 
0845                  03573 STR@LB6
0845   0050 0057 0052 03574         de 80,87,82,32,58,32,76,79,87,32,0
       0020 003A 0020 
       004C 004F 0057 
       0020 0000 
0850                  03575 STR@LB7
0850   004D 004F 0044 03576         de 77,79,68,32,58,32,85,83,66,32,0
       0020 003A 0020 
       0055 0053 0042 
       0020 0000 
085B                  03577 STR@LB8
085B   004D 004F 0044 03578         de 77,79,68,32,58,32,76,83,66,32,0
       0020 003A 0020 
       004C 0053 0042 
       0020 0000 
0866                  03579 STR@LB9
0866   004B 0061 006E 03580         de 75,97,110,97,108,32,58,32,0
       0061 006C 0020 
       003A 0020 0000 
086F                  03581 __EOF
2007   3D7A           03582 __config FOSC_HS&WDTE_OFF&PWRTE_OFF&BOREN_ON&LVP_OFF&CPD_OFF&WRT_OFF&DEBUG_OFF&CP_OFF
                      03583         end
MPASM  5.45                               A.S   11-7-2015  20:34:43         PAGE  2


SYMBOL TABLE
  LABEL                             VALUE 

ACKDT                             00000005
ACKEN                             00000004
ACKSTAT                           00000006
ADCON0                            0000001F
ADCON1                            0000009F
ADCS0                             00000006
ADCS1                             00000007
ADDEN                             00000003
ADFM                              00000007
ADIE                              00000006
ADIF                              00000006
ADON                              00000000
ADRESH                            0000001E
ADRESL                            0000009E
ADRESLH                           0000001E
BANK0_END                         0X7B
BANK0_START                       0X20
BANK1_END                         0X00EF
BANK1_START                       0X00A0
BANK2_END                         0X016F
BANK2_START                       0X0110
BANK3_END                         0X01EF
BANK3_START                       0X0190
BASLA                             00000164
BC@LL11                           00000141
BC@LL13                           0000046C
BC@LL14                           00000478
BC@LL16                           0000048D
BC@LL17                           00000497
BC@LL19                           000004AC
BC@LL20                           000004B6
BC@LL22                           000004D7
BC@LL23                           000004E7
BC@LL25                           0000050C
BC@LL26                           00000516
BC@LL28                           0000052E
BC@LL29                           00000538
BC@LL31                           0000054D
BC@LL32                           00000555
BC@LL34                           0000056A
BC@LL35                           00000572
BC@LL37                           00000585
BC@LL38                           0000058D
BC@LL40                           000005A0
BC@LL41                           000005A8
BC@LL43                           00000676
BC@LL45                           00000682
BC@LL47                           0000068E
BC@LL49                           0000069A
BC@LL51                           000006A6
BC@LL53                           000006B2
BC@LL55                           000006BE
BC@LL57                           000006CA
BC@LL59                           000006D6
BC@LL6                            00000145
BC@LL61                           000006E2
BC@LL63                           000006EE
BC@LL65                           000006FA
BC@LL67                           00000706
BC@LL69                           00000712
BC@LL71                           0000071E
BC@LL8                            0000013A
BC@LL80                           000007A2
BC@LL81                           000007A6
BC@LL9                            00000144
BCLIE                             00000003
BCLIF                             00000003
BF                                00000000
BIT_BIT                           
BIT_BYTE                          
BIT_DWORD                         
BIT_WORD                          
BIT_WREG                          
BODEN_OFF                         00003FBF
BODEN_ON                          00003FFF
BOREN_OFF                         00003FBF
BOREN_ON                          00003FFF
BPF                               00000020
BPFH                              00000021
BRGH                              00000002
BUFFER                            00000041
BYTE_BIT                          
BYTE_BYTE                         
BYTE_DWORD                        
BYTE_SDWORD                       
BYTE_SWORD                        
BYTE_WORD                         
BYTE_WREG                         
C                                 00000000
C@STROUT                          00000099
C@STROUTLP                        0000009B
C@STROUTW                         0000009A
CALCVALUE                         000005E7
CCP1CON                           00000017
CCP1IE                            00000002
CCP1IF                            00000002
CCP1M0                            00000000
CCP1M1                            00000001
CCP1M2                            00000002
CCP1M3                            00000003
CCP1X                             00000005
CCP1Y                             00000004
CCP2CON                           0000001D
CCP2IE                            00000000
CCP2IF                            00000000
CCP2M0                            00000000
CCP2M1                            00000001
CCP2M2                            00000002
CCP2M3                            00000003
CCP2X                             00000005
CCP2Y                             00000004
CCPR1H                            00000016
CCPR1L                            00000015
CCPR1LH                           00000016
CCPR2H                            0000001C
CCPR2L                            0000001B
CCPR2LH                           0000001C
CHANNEL                           000000E3
CHS0                              00000003
CHS1                              00000004
CHS2                              00000005
CIKIS                             00000145
CKE                               00000006
CKP                               00000004
CLS                               0000003A
CMD                               000000E4
CONFIG_REQ                        1
CPD_OFF                           00003FFF
CPD_ON                            00003EFF
CP_ALL                            00000FCF
CP_HALF                           00001FDF
CP_OFF                            00003FFF
CP_UPPER_256                      00002FEF
CREN                              00000004
CSRC                              00000007
CSTR#CT                           00000022
CT@LB4                            00000102
CT@LB78                           000007B8
CT@LB86                           000007EB
CURRENT@PAGE                      00000000
CURS@                             00000044
DATAGONDER                        00000754
DATAM                             000000E6
DATA_ADDRESS                      00000005
DC                                00000001
DEBUG_OFF                         00003FFF
DEBUG_ON                          000037FF
DECVALUE                          000000DA
DEGERLER                          00000054
DEGERLER#0                        00000054
DEGERLER#1                        00000055
DEGERLER#10                       0000005E
DEGERLER#11                       0000005F
DEGERLER#12                       00000060
DEGERLER#13                       00000061
DEGERLER#14                       00000062
DEGERLER#15                       00000063
DEGERLER#16                       00000064
DEGERLER#17                       00000065
DEGERLER#18                       00000066
DEGERLER#19                       00000067
DEGERLER#2                        00000056
DEGERLER#20                       00000068
DEGERLER#21                       00000069
DEGERLER#22                       0000006A
DEGERLER#23                       0000006B
DEGERLER#24                       0000006C
DEGERLER#25                       0000006D
DEGERLER#26                       0000006E
DEGERLER#27                       0000006F
DEGERLER#28                       00000070
DEGERLER#29                       00000071
DEGERLER#3                        00000057
DEGERLER#30                       00000072
DEGERLER#31                       00000073
DEGERLER#32                       00000074
DEGERLER#33                       00000075
DEGERLER#34                       00000076
DEGERLER#35                       00000077
DEGERLER#36                       00000078
DEGERLER#37                       00000079
DEGERLER#38                       0000007A
DEGERLER#39                       0000007B
DEGERLER#4                        00000058
DEGERLER#40                       000000A0
DEGERLER#41                       000000A1
DEGERLER#42                       000000A2
DEGERLER#43                       000000A3
DEGERLER#44                       000000A4
DEGERLER#45                       000000A5
DEGERLER#46                       000000A6
DEGERLER#47                       000000A7
DEGERLER#48                       000000A8
DEGERLER#49                       000000A9
DEGERLER#5                        00000059
DEGERLER#50                       000000AA
DEGERLER#51                       000000AB
DEGERLER#52                       000000AC
DEGERLER#53                       000000AD
DEGERLER#54                       000000AE
DEGERLER#55                       000000AF
DEGERLER#56                       000000B0
DEGERLER#57                       000000B1
DEGERLER#58                       000000B2
DEGERLER#59                       000000B3
DEGERLER#6                        0000005A
DEGERLER#60                       000000B4
DEGERLER#61                       000000B5
DEGERLER#62                       000000B6
DEGERLER#63                       000000B7
DEGERLER#64                       000000B8
DEGERLER#65                       000000B9
DEGERLER#66                       000000BA
DEGERLER#67                       000000BB
DEGERLER#68                       000000BC
DEGERLER#69                       000000BD
DEGERLER#7                        0000005B
DEGERLER#70                       000000BE
DEGERLER#71                       000000BF
DEGERLER#72                       000000C0
DEGERLER#73                       000000C1
DEGERLER#74                       000000C2
DEGERLER#75                       000000C3
DEGERLER#76                       000000C4
DEGERLER#77                       000000C5
DEGERLER#78                       000000C6
DEGERLER#79                       000000C7
DEGERLER#8                        0000005C
DEGERLER#80                       000000C8
DEGERLER#81                       000000C9
DEGERLER#82                       000000CA
DEGERLER#83                       000000CB
DEGERLER#84                       000000CC
DEGERLER#85                       000000CD
DEGERLER#86                       000000CE
DEGERLER#87                       000000CF
DEGERLER#88                       000000D0
DEGERLER#89                       000000D1
DEGERLER#9                        0000005D
DEST@PAGE                         00000000
DLY@P                             000000B7
DON                               000000E7
DONGU                             000002D5
DWORD_BIT                         
DWORD_BYTE                        
DWORD_DWORD                       
DWORD_WORD                        
DWORD_WREG                        
D_A                               00000005
EEADR                             0000010D
EEADRH                            0000010F
EECON1                            0000018C
EECON2                            0000018D
EEDAT                             0000010C
EEDATA                            0000010C
EEDATH                            0000010E
EEDATL                            0000010C
EEDATLH                           0000010E
EEIE                              00000004
EEIF                              00000004
EEPGD                             00000007
ENUZUN                            00000043
F1_000005                         000000E5
F1_000022                         000000E8
F1_000023                         000000E9
F1_000038                         000000EB
F1_000045                         000000EC
F1_000050                         000000EE
F1_000051                         000000F9
F1_000052                         00000102
F1_000054                         0000010A
F1_000055                         0000010C
F1_000058                         0000010D
F1_000062                         00000110
F1_000063                         00000124
F1_000065                         00000125
F1_000067                         00000129
F1_000069                         0000012D
F1_000070                         00000136
F1_000071                         0000013A
F1_000072                         0000013A
F1_000073                         00000141
F1_000074                         00000144
F1_000075                         00000144
F1_000076                         00000145
F1_000080                         00000145
F1_000081                         00000146
F1_000082                         00000163
F1_000089                         00000164
F1_000090                         00000166
F1_000091                         0000016F
F1_000092                         00000179
F1_000093                         00000183
F1_000096                         00000188
F1_000097                         0000018A
F1_000099                         0000018B
F1_000105                         0000018C
F1_000120                         0000018F
F1_000121                         00000192
F1_000122                         00000196
F1_000123                         00000199
F1_000124                         0000019C
F1_000125                         000001A0
F1_000126                         000001A3
F1_000127                         000001A6
F1_000128                         000001AA
F1_000129                         000001AD
F1_000130                         000001B0
F1_000131                         000001B4
F1_000132                         000001B7
F1_000133                         000001BA
F1_000134                         000001BE
F1_000135                         000001C1
F1_000136                         000001C4
F1_000137                         000001C8
F1_000138                         000001CB
F1_000139                         000001CE
F1_000140                         000001D2
F1_000141                         000001D5
F1_000142                         000001D8
F1_000143                         000001DC
F1_000144                         000001DF
F1_000145                         000001E2
F1_000146                         000001E6
F1_000147                         000001E9
F1_000148                         000001EC
F1_000149                         000001F0
F1_000150                         000001F3
F1_000151                         000001F6
F1_000152                         000001FA
F1_000153                         000001FD
F1_000154                         00000200
F1_000155                         00000204
F1_000157                         00000207
F1_000158                         0000020A
F1_000159                         0000020E
F1_000160                         00000211
F1_000161                         00000214
F1_000162                         00000218
F1_000164                         0000021B
F1_000165                         0000021E
F1_000166                         00000222
F1_000172                         00000225
F1_000173                         00000227
F1_000174                         0000022B
F1_000175                         0000022E
F1_000176                         00000231
F1_000177                         00000235
F1_000178                         00000238
F1_000179                         0000023B
F1_000180                         0000023F
F1_000181                         00000242
F1_000182                         00000245
F1_000183                         00000249
F1_000184                         0000024C
F1_000185                         0000024F
F1_000186                         00000253
F1_000187                         00000256
F1_000188                         00000259
F1_000189                         0000025D
F1_000190                         00000260
F1_000191                         00000263
F1_000192                         00000267
F1_000193                         0000026A
F1_000194                         0000026D
F1_000195                         00000271
F1_000196                         00000274
F1_000197                         00000277
F1_000198                         0000027B
F1_000199                         0000027E
F1_000200                         00000281
F1_000201                         00000285
F1_000202                         00000288
F1_000203                         0000028B
F1_000204                         0000028F
F1_000205                         00000292
F1_000207                         00000295
F1_000208                         00000299
F1_000209                         0000029C
F1_000210                         0000029F
F1_000211                         000002A3
F1_000212                         000002A6
F1_000213                         000002A9
F1_000214                         000002AD
F1_000215                         000002B0
F1_000216                         000002B3
F1_000217                         000002B7
F1_000218                         000002BA
F1_000219                         000002BD
F1_000220                         000002C1
F1_000221                         000002C4
F1_000222                         000002C7
F1_000223                         000002CB
F1_000224                         000002CE
F1_000225                         000002D1
F1_000278                         000002D5
F1_000279                         000002DA
F1_000280                         000002E0
F1_000281                         000002E6
F1_000282                         000002EC
F1_000283                         000002F2
F1_000284                         000002F8
F1_000285                         000002FE
F1_000286                         00000302
F1_000290                         00000305
F1_000291                         0000030B
F1_000292                         00000311
F1_000293                         00000317
F1_000294                         0000031D
F1_000295                         00000323
F1_000296                         00000329
F1_000297                         0000032F
F1_000298                         00000333
F1_000302                         00000336
F1_000303                         0000033C
F1_000304                         00000342
F1_000305                         00000348
F1_000306                         0000034E
F1_000307                         00000354
F1_000308                         0000035A
F1_000309                         00000360
F1_000310                         00000364
F1_000314                         00000367
F1_000315                         0000036D
F1_000316                         00000373
F1_000317                         00000379
F1_000318                         0000037F
F1_000319                         00000385
F1_000320                         0000038B
F1_000321                         00000391
F1_000322                         00000395
F1_000325                         00000398
F1_000326                         0000039E
F1_000327                         000003A4
F1_000328                         000003AA
F1_000329                         000003B0
F1_000330                         000003B6
F1_000331                         000003BC
F1_000332                         000003C2
F1_000333                         000003C6
F1_000336                         000003C9
F1_000337                         000003CF
F1_000338                         000003D5
F1_000339                         000003DB
F1_000340                         000003E1
F1_000341                         000003E7
F1_000342                         000003ED
F1_000343                         000003F3
F1_000344                         000003F7
F1_000347                         000003FA
F1_000348                         00000400
F1_000349                         00000406
F1_000350                         0000040C
F1_000351                         00000412
F1_000352                         00000418
F1_000353                         0000041E
F1_000354                         00000424
F1_000355                         00000428
F1_000359                         0000042B
F1_000360                         00000456
F1_000361                         0000045E
F1_000362                         0000046C
F1_000363                         0000046C
F1_000364                         00000478
F1_000365                         00000478
F1_000366                         00000480
F1_000367                         0000048D
F1_000368                         0000048D
F1_000369                         00000497
F1_000370                         00000497
F1_000371                         0000049F
F1_000372                         000004AC
F1_000373                         000004AC
F1_000374                         000004B6
F1_000375                         000004B6
F1_000376                         000004C0
F1_000377                         000004D7
F1_000378                         000004D7
F1_000379                         000004E7
F1_000380                         000004E7
F1_000381                         000004F6
F1_000382                         000004FE
F1_000383                         0000050C
F1_000384                         0000050C
F1_000385                         00000516
F1_000386                         00000516
F1_000387                         00000520
F1_000388                         0000052E
F1_000389                         0000052E
F1_000390                         00000538
F1_000391                         00000538
F1_000392                         00000542
F1_000393                         0000054D
F1_000394                         0000054D
F1_000395                         00000555
F1_000396                         00000555
F1_000397                         0000055F
F1_000398                         0000056A
F1_000399                         0000056A
F1_000400                         00000572
F1_000401                         00000572
F1_000402                         0000057A
F1_000403                         00000585
F1_000404                         00000585
F1_000405                         0000058D
F1_000406                         0000058D
F1_000407                         00000595
F1_000408                         000005A0
F1_000409                         000005A0
F1_000410                         000005A8
F1_000424                         000005A8
F1_000425                         000005AB
F1_000429                         000005AF
F1_000430                         000005CF
F1_000431                         000005D2
F1_000432                         000005D5
F1_000433                         000005D8
F1_000434                         000005DC
F1_000435                         000005DF
F1_000436                         000005E2
F1_000460                         000005E5
F1_000465                         000005E7
F1_000466                         0000066B
F1_000467                         0000066D
F1_000468                         00000677
F1_000469                         00000683
F1_000470                         0000068F
F1_000471                         0000069B
F1_000472                         000006A7
F1_000473                         000006B3
F1_000474                         000006BF
F1_000475                         000006CB
F1_000476                         000006D7
F1_000477                         000006E3
F1_000478                         000006EF
F1_000479                         000006FB
F1_000480                         00000707
F1_000481                         00000713
F1_000497                         0000071F
F1_000501                         00000720
F1_000502                         00000724
F1_000503                         0000072A
F1_000504                         0000072E
F1_000506                         00000734
F1_000507                         00000737
F1_000508                         0000073B
F1_000509                         0000073E
F1_000510                         00000742
F1_000511                         00000745
F1_000514                         00000749
F1_000515                         0000074D
F1_000516                         0000074F
F1_000521                         00000753
F1_000525                         00000754
F1_000526                         00000758
F1_000527                         0000075E
F1_000528                         00000762
F1_000530                         00000768
F1_000531                         0000076B
F1_000532                         0000076F
F1_000533                         00000772
F1_000534                         00000776
F1_000535                         00000779
F1_000538                         0000077D
F1_000539                         00000781
F1_000540                         00000783
F1_000542                         00000787
F1_000548                         00000788
F1_000549                         00000794
F1_000550                         0000079B
F1_000551                         000007A2
F1_000552                         000007A2
F1_000553                         000007A6
F1_000554                         000007A6
F1_000555                         000007A9
F1_000556                         000007AB
F1_000557                         000007AE
F1_000558                         000007B4
F1_000559                         000007B8
F1_000562                         000007C0
F1_000563                         000007C2
F1_000564                         000007C6
F1_000565                         000007CC
F1_000566                         000007D0
F1_000572                         000007D1
F1_000573                         000007DC
F1_000574                         000007E2
F1_000575                         000007E5
F1_000576                         000007EB
F1_000578                         000007F3
F1_000585                         000007F4
F1_EOF                            000007F6
F1_SOF                            000000E5
F2_EOF                            000000E5
F2_SOF                            000000E5
F@CALL                            
F@JUMP                            
FA@EXT                            00000035
FERR                              00000002
FIND@ADDRESS                      0000000F
FIND@PAGE                         
FOSC_EXTRC                        00003FFF
FOSC_HS                           00003FFE
FOSC_LP                           00003FFC
FOSC_XT                           00003FFD
FR@LB2                            000000F0
FR@LB76                           0000078B
FR@LB84                           000007D3
FRQDIGITS                         000000DC
FRQDIGITS#0                       000000DC
FRQDIGITS#1                       000000DD
FRQDIGITS#2                       000000DE
FRQDIGITS#3                       000000DF
FRQDIGITS#4                       000000E0
FRQDIGITS#5                       000000E1
FRQDIGITS#6                       000000E2
FSR                               00000004
FSRSAVE                           0000007C
GCEN                              00000007
GEN                               00000023
GEN3H                             00000024
GEN4                              00000025
GEN4H                             00000026
GIE                               INTCON,7
GO                                00000002
GONDER                            00000788
GO_DONE                           00000002
HS_OSC                            00003FFE
I2C_DATA                          00000005
I2C_READ                          00000002
I2C_START                         00000003
I2C_STOP                          00000004
I@NT                              000000D7
IBF                               00000007
IBOV                              00000005
ID@LB72                           00000728
ID@LB73                           00000732
ID@LB74                           0000075C
ID@LB75                           00000766
ID@LB82                           000007B2
ID@LB83                           000007CA
ID@LB87                           000007E9
INDF                              00000000
INTCON                            0000000B
INTE                              INTCON,4
INTEDG                            OPTION_REG,6
INTF                              INTCON,1
IRP                               00000007
JUMP                              
KATAR                             0000003E
KATARH                            0000003F
KOMUTGONDER                       00000720
LABEL_WORD                        
LCD#DTPIN                         4
LCD#DTPORT                        PORTD
LCD#ENPIN                         3
LCD#ENPORT                        PORTD
LCD#INTERFACE                     4
LCD#LINES                         4
LCD#RSPIN                         2
LCD#RSPORT                        PORTD
LCD#TYPE                          0
LCD@CLS                           00000038
LCD@CRS                           00000042
LCDDATA                           000000E5
LCDHAZIRLA                        0000018E
LP_OSC                            00003FFC
LVP_OFF                           00003F7F
LVP_ON                            00003FFF
M@LB2                             0000061A
M@LB3                             00000631
M@LB4                             00000648
M@LB5                             0000065F
MYINTERRUPT                       00000110
NOT_A                             00000005
NOT_ADDRESS                       00000005
NOT_BO                            00000000
NOT_BOR                           00000000
NOT_DONE                          00000002
NOT_PD                            00000003
NOT_POR                           00000001
NOT_RBPU                          OPTION_REG,7
NOT_RC8                           00000006
NOT_T1SYNC                        00000002
NOT_TO                            00000004
NOT_TX8                           00000006
NOT_W                             00000002
NOT_WRITE                         00000002
NUM16_SFR                         
NUM_BIT                           
NUM_BYTE                          
NUM_DWORD                         
NUM_FSR                           
NUM_SFR                           
NUM_WORD                          
NUM_WREG                          
NX@LB3                            0000010A
NX@LB77                           000007C0
NX@LB85                           000007F3
OBF                               00000006
OERR                              00000001
OPTION_REG                        00000081
PB@LB88                           000007F4
PB@LB89                           000007F6
PBP#VAR0                          00000027
PBP#VAR1                          00000028
PBP#VAR2                          00000029
PBP#VAR3                          0000002A
PBP#VAR4                          0000002B
PBP#VAR5                          0000002C
PBP#VAR6                          0000002D
PCFG0                             00000000
PCFG1                             00000001
PCFG2                             00000002
PCFG3                             00000003
PCL                               00000002
PCLATH                            0000000A
PCON                              0000008E
PDESTINATION@PAGE                 00000000
PEIE                              INTCON,6
PEN                               00000002
PIE1                              0000008C
PIE2                              0000008D
PIR1                              0000000C
PIR2                              0000000D
PORTA                             00000005
PORTB                             00000006
PORTC                             00000007
PORTD                             00000008
PORTDURUM                         00000042
PORTE                             00000009
POSITION                          00000040
PP0                               0000002E
PP0H                              0000002F
PP1                               00000030
PP1H                              00000031
PP2                               00000032
PP2H                              00000033
PP3                               00000034
PP3H                              00000035
PP4                               00000036
PP5                               00000037
PP6                               00000038
PP6H                              00000039
PP7                               0000003A
PP7H                              0000003B
PP8                               0000003C
PP8H                              0000003D
PP_ACKDT                          00000005
PP_ACKEN                          00000004
PP_ACKSTAT                        00000006
PP_BF                             00000000
PP_CREN                           00000004
PP_EEPGD                          00000007
PP_GO_DONE                        00000002
PP_OERR                           00000001
PP_PEN                            00000002
PP_RCEN                           00000003
PP_RCIF                           00000005
PP_RD                             00000000
PP_RSEN                           00000001
PP_R_W                            00000002
PP_SEN                            00000000
PP_T2CKPS0                        00000000
PP_T2CKPS1                        00000001
PP_TMR2ON                         00000002
PP_TXIF                           00000004
PP_WR                             00000001
PP_WREN                           00000002
PP_WRERR                          00000003
PR2                               00000092
PR@EX                             00000094
PR@LP                             00000087
PRINT                             00000049
PRIT@SKP                          00000081
PROTON#CODE#START                 00000000
PROTON#MAIN#START                 000000E3
PRT@1                             00000073
PRT@C                             00000072
PRT@S                             00000086
PS0                               00000000
PS1                               00000001
PS2                               00000002
PSA                               00000003
PSAVE                             0000007D
PSPIE                             00000007
PSPIF                             00000007
PSPMODE                           00000004
PUT@ARRAY                         000000DB
PUT@ARRAYW                        000000DC
PWRTE_OFF                         00003FFF
PWRTE_ON                          00003FF7
R@B                               
RAM_BANK                          00000000
RAM_BANKS                         4
RBIE                              INTCON,3
RBIF                              INTCON,0
RC8_9                             00000006
RC9                               00000006
RCD8                              00000000
RCEN                              00000003
RCIE                              00000005
RCIF                              00000005
RCREG                             0000001A
RCSTA                             00000018
RC_OSC                            00003FFF
RD                                00000000
READ_WRITE                        00000002
RESVALUE                          000000DB
RP0                               00000005
RP1                               00000006
RSEN                              00000001
RX9                               00000006
RX9D                              00000000
R_W                               00000002
S@B                               
SATIR                             00000044
SATIR#0                           00000044
SATIR#1                           00000045
SATIR#10                          0000004E
SATIR#11                          0000004F
SATIR#12                          00000050
SATIR#13                          00000051
SATIR#14                          00000052
SATIR#15                          00000053
SATIR#2                           00000046
SATIR#3                           00000047
SATIR#4                           00000048
SATIR#5                           00000049
SATIR#6                           0000004A
SATIR#7                           0000004B
SATIR#8                           0000004C
SATIR#9                           0000004D
SATIRGONDER                       000007D1
SAY                               000000D2
SCL                               PORTC,3
SDA                               PORTC,4
SEGMENTS                          000000D3
SEGMENTS#0                        000000D3
SEGMENTS#1                        000000D4
SEGMENTS#2                        000000D5
SEGMENTS#3                        000000D6
SEGMENTS#4                        000000D7
SEGMENTS#5                        000000D8
SEGMENTS#6                        000000D9
SEN                               00000000
SET@PAGE                          
SMP                               00000007
SPBRG                             00000099
SPEN                              00000007
SREN                              00000005
SSAVE                             0000007E
SSPADD                            00000093
SSPBUF                            00000013
SSPCON                            00000014
SSPCON2                           00000091
SSPEN                             00000005
SSPIE                             00000003
SSPIF                             00000003
SSPM0                             00000000
SSPM1                             00000001
SSPM2                             00000002
SSPM3                             00000003
SSPOV                             00000006
SSPSTAT                           00000094
STATUS                            00000003
STR@LB1                           000007F8
STR@LB2                           00000809
STR@LB3                           0000081D
STR@LB4                           0000082F
STR@LB5                           0000083A
STR@LB6                           00000845
STR@LB7                           00000850
STR@LB8                           0000085B
STR@LB9                           00000866
SYNC                              00000004
T0CS                              00000005
T0IE                              INTCON,5
T0IF                              INTCON,2
T0SE                              00000004
T1CKPS0                           00000004
T1CKPS1                           00000005
T1CON                             00000010
T1INSYNC                          00000002
T1OSCEN                           00000003
T1SYNC                            00000002
T2CKPS0                           00000000
T2CKPS1                           00000001
T2CON                             00000012
TMR0                              00000001
TMR1CS                            00000001
TMR1H                             0000000F
TMR1IE                            00000000
TMR1IF                            00000000
TMR1L                             0000000E
TMR1LH                            0000000F
TMR1ON                            00000000
TMR2                              00000011
TMR2IE                            00000001
TMR2IF                            00000001
TMR2ON                            00000002
TOUTPS0                           00000003
TOUTPS1                           00000004
TOUTPS2                           00000005
TOUTPS3                           00000006
TRISA                             00000085
TRISB                             00000086
TRISC                             00000087
TRISD                             00000088
TRISE                             00000089
TRISE0                            00000000
TRISE1                            00000001
TRISE2                            00000002
TRMT                              00000001
TX8_9                             00000006
TX9                               00000006
TX9D                              00000000
TXD8                              00000000
TXEN                              00000005
TXIE                              00000004
TXIF                              00000004
TXREG                             00000019
TXSTA                             00000098
UA                                00000001
WCOL                              00000007
WDTE_OFF                          00003FFB
WDTE_ON                           00003FFF
WDT_OFF                           00003FFB
WDT_ON                            00003FFF
WORD_BIT                          
WORD_BYTE                         
WORD_DWORD                        
WORD_SDWORD                       
WORD_WORD                         
WORD_WREG                         
WR                                00000001
WREG_BIT                          
WREG_BYTE                         
WREG_DWORD                        
WREG_SDWORD                       
WREG_SWORD                        
WREG_WORD                         
WREN                              00000002
WRERR                             00000003
WRTE_OFF                          00003DFF
WRTE_ON                           00003FFF
WRT_ENABLE_OFF                    00003DFF
WRT_ENABLE_ON                     00003FFF
WRT_OFF                           00003DFF
WRT_ON                            00003FFF
WSAVE                             0000007F
XTAL                              10
XT_OSC                            00003FFD
Z                                 00000002
_ADC                              8
_ADC_RES                          10
_BANKS                            3
_BYTE__SEND_                      00000096
_CORE                             14
_CWRITE_BLOCK                     1
_EEPROM                           256
_FLASH                            1
_HIGH__CONTEXT_STORE              000000E8
_HIGH__CONTEXT_STORE#0            000000E8
_HIGH__CONTEXT_STORE#1            000000E9
_HIGH__CONTEXT_STORE#2            000000EA
_HIGH__CONTEXT_STORE#3            000000EB
_HIGH__CONTEXT_STORE#4            000000EC
_HIGH__CONTEXT_STORE#5            000000ED
_I2C_SCL_PIN                      00000003
_I2C_SCL_PORT                     00000087
_I2C_SDA_PIN                      00000004
_I2C_SDA_PORT                     00000087
_MAXMEM                           8192
_MAXRAM                           368
_PAGES                            4
_RAM_END                          0X0170
_SYSTEM_VARIABLE_COUNT            30
_USART                            1
_USB                              0
__16F877                          1
__CREAD_                          000000AC
__DELAY_MS_                       000000B5
__DELAY_MS_W_                     000000B6
__DELAY_US_                       000000C2
__DELAY_US_W_                     000000C3
__EOF                             0000086F
__HBUS_BITRATE                    400
__INTERRUPTS_ENABLED              1
__LCD_DTPIN                       4
__LCD_DTPORT                      PORTD
__LCD_ENPIN                       3
__LCD_ENPORT                      PORTD
__LCD_INTERFACE                   4
__LCD_LINES                       4
__LCD_RSPIN                       2
__LCD_RSPORT                      PORTD
__SCL_PIN                         3
__SCL_PORT                        PORTC
__SDA_PIN                         4
__SDA_PORT                        PORTC
__XTAL                            10


MEMORY USAGE MAP ('X' = USED,  '-' = UNUSED)

0000 : XXXXXXXXXXXXXXXX XXXXXXXXXXXXXXXX XXXXXXXXXXXXXXXX XXXXXXXXXXXXXXXX
0040 : XXXXXXXXXXXXXXXX XXXXXXXXXXXXXXXX XXXXXXXXXXXXXXXX XXXXXXXXXXXXXXXX
0080 : XXXXXXXXXXXXXXXX XXXXXXXXXXXXXXXX XXXXXXXXXXXXXXXX XXXXXXXXXXXXXXXX
00C0 : XXXXXXXXXXXXXXXX XXXXXXXXXXXXXXXX XXXXXXXXXXXXXXXX XXXXXXXXXXXXXXXX
0100 : XXXXXXXXXXXXXXXX XXXXXXXXXXXXXXXX XXXXXXXXXXXXXXXX XXXXXXXXXXXXXXXX
0140 : XXXXXXXXXXXXXXXX XXXXXXXXXXXXXXXX XXXXXXXXXXXXXXXX XXXXXXXXXXXXXXXX
0180 : XXXXXXXXXXXXXXXX XXXXXXXXXXXXXXXX XXXXXXXXXXXXXXXX XXXXXXXXXXXXXXXX
01C0 : XXXXXXXXXXXXXXXX XXXXXXXXXXXXXXXX XXXXXXXXXXXXXXXX XXXXXXXXXXXXXXXX
0200 : XXXXXXXXXXXXXXXX XXXXXXXXXXXXXXXX XXXXXXXXXXXXXXXX XXXXXXXXXXXXXXXX
0240 : XXXXXXXXXXXXXXXX XXXXXXXXXXXXXXXX XXXXXXXXXXXXXXXX XXXXXXXXXXXXXXXX
0280 : XXXXXXXXXXXXXXXX XXXXXXXXXXXXXXXX XXXXXXXXXXXXXXXX XXXXXXXXXXXXXXXX
02C0 : XXXXXXXXXXXXXXXX XXXXXXXXXXXXXXXX XXXXXXXXXXXXXXXX XXXXXXXXXXXXXXXX
0300 : XXXXXXXXXXXXXXXX XXXXXXXXXXXXXXXX XXXXXXXXXXXXXXXX XXXXXXXXXXXXXXXX
0340 : XXXXXXXXXXXXXXXX XXXXXXXXXXXXXXXX XXXXXXXXXXXXXXXX XXXXXXXXXXXXXXXX
0380 : XXXXXXXXXXXXXXXX XXXXXXXXXXXXXXXX XXXXXXXXXXXXXXXX XXXXXXXXXXXXXXXX
03C0 : XXXXXXXXXXXXXXXX XXXXXXXXXXXXXXXX XXXXXXXXXXXXXXXX XXXXXXXXXXXXXXXX
0400 : XXXXXXXXXXXXXXXX XXXXXXXXXXXXXXXX XXXXXXXXXXXXXXXX XXXXXXXXXXXXXXXX
0440 : XXXXXXXXXXXXXXXX XXXXXXXXXXXXXXXX XXXXXXXXXXXXXXXX XXXXXXXXXXXXXXXX
0480 : XXXXXXXXXXXXXXXX XXXXXXXXXXXXXXXX XXXXXXXXXXXXXXXX XXXXXXXXXXXXXXXX
04C0 : XXXXXXXXXXXXXXXX XXXXXXXXXXXXXXXX XXXXXXXXXXXXXXXX XXXXXXXXXXXXXXXX
0500 : XXXXXXXXXXXXXXXX XXXXXXXXXXXXXXXX XXXXXXXXXXXXXXXX XXXXXXXXXXXXXXXX
0540 : XXXXXXXXXXXXXXXX XXXXXXXXXXXXXXXX XXXXXXXXXXXXXXXX XXXXXXXXXXXXXXXX
0580 : XXXXXXXXXXXXXXXX XXXXXXXXXXXXXXXX XXXXXXXXXXXXXXXX XXXXXXXXXXXXXXXX
05C0 : XXXXXXXXXXXXXXXX XXXXXXXXXXXXXXXX XXXXXXXXXXXXXXXX XXXXXXXXXXXXXXXX
0600 : XXXXXXXXXXXXXXXX XXXXXXXXXXXXXXXX XXXXXXXXXXXXXXXX XXXXXXXXXXXXXXXX
0640 : XXXXXXXXXXXXXXXX XXXXXXXXXXXXXXXX XXXXXXXXXXXXXXXX XXXXXXXXXXXXXXXX
0680 : XXXXXXXXXXXXXXXX XXXXXXXXXXXXXXXX XXXXXXXXXXXXXXXX XXXXXXXXXXXXXXXX
06C0 : XXXXXXXXXXXXXXXX XXXXXXXXXXXXXXXX XXXXXXXXXXXXXXXX XXXXXXXXXXXXXXXX
0700 : XXXXXXXXXXXXXXXX XXXXXXXXXXXXXXXX XXXXXXXXXXXXXXXX XXXXXXXXXXXXXXXX
0740 : XXXXXXXXXXXXXXXX XXXXXXXXXXXXXXXX XXXXXXXXXXXXXXXX XXXXXXXXXXXXXXXX
0780 : XXXXXXXXXXXXXXXX XXXXXXXXXXXXXXXX XXXXXXXXXXXXXXXX XXXXXXXXXXXXXXXX
07C0 : XXXXXXXXXXXXXXXX XXXXXXXXXXXXXXXX XXXXXXXXXXXXXXXX XXXXXXXXXXXXXXXX
0800 : XXXXXXXXXXXXXXXX XXXXXXXXXXXXXXXX XXXXXXXXXXXXXXXX XXXXXXXXXXXXXXXX
0840 : XXXXXXXXXXXXXXXX XXXXXXXXXXXXXXXX XXXXXXXXXXXXXXX- ----------------
2000 : -------X-------- ---------------- ---------------- ----------------

ALL OTHER MEMORY BLOCKS UNUSED.

PROGRAM MEMORY WORDS USED:  2159
PROGRAM MEMORY WORDS FREE:  6033


ERRORS   :     0
WARNINGS :     0 REPORTED,  1434 SUPPRESSED
MESSAGES :     1 REPORTED,   218 SUPPRESSED


