MPASM  5.45                               A.S   11-14-2015  15:00:58         PAGE  1


LOC  OBJECT CODE     LINE SOURCE TEXT
  VALUE


                      00002         list
                      00003 ;{
                      00004 ;FILE F1 = C:\PROJELER\RACAL\RACAL_BC39B_I2C_LCD_PIC16F628.BAS
                      00005 ;FILE F2 = C:\PROJELER\RACAL\RACAL_BC39B_I2C_LCD_PIC16F628.PRP
                      00006 ;}
                      00007 ;[Variable Listing]
                      00008 ;Katar,0036,DT_WORD,2
                      00009 ;Position,0038,DT_BYTE,1
                      00010 ;buffer,0039,DT_BYTE,1
                      00011 ;PortDurum,003A,DT_BYTE,1
                      00012 ;enuzun,003B,DT_BYTE,1
                      00013 ;Satir,003C,DT_BYTE,16
                      00014 ;Degerler,004C,DT_BYTE,90
                      00015 ;say,00C9,DT_BYTE,1
                      00016 ;Segments,00CA,DT_BYTE,7
                      00017 ;DecValue,00D1,DT_BYTE,1
                      00018 ;ResValue,00D2,DT_BYTE,1
                      00019 ;FrqDigits,00D3,DT_BYTE,7
                      00020 ;Channel,00DA,DT_BYTE,1
                      00021 ;Cmd,00DB,DT_BYTE,1
                      00022 ;LcdData,00DC,DT_BYTE,1
                      00023 ;DATAm,00DD,DT_BYTE,1
                      00024 ;don,00DE,DT_BYTE,1
                      00025 ;_High__Context_Store,00DF,DT_BYTE,6
                      00026 ;SCL,0005.3,DT_BIT
                      00027 ;SDA,0005.4,DT_BIT
                      00028 ;RBIF,000B.0,DT_BIT
                      00029 ;INTF,000B.1,DT_BIT
                      00030 ;T0IF,000B.2,DT_BIT
                      00031 ;RBIE,000B.3,DT_BIT
                      00032 ;INTE,000B.4,DT_BIT
                      00033 ;T0IE,000B.5,DT_BIT
                      00034 ;PEIE,000B.6,DT_BIT
                      00035 ;GIE,000B.7,DT_BIT
                      00036 ;INTEDG,0081.6,DT_BIT
                      00037 ;NOT_RBPU,0081.7,DT_BIT
                      00038 ;[End Listing]
                      00039 ;[TOTAL VARS] 161

                      00041 #define CONFIG_REQ 1
MESSAGE[308]: WARNING LEVEL SUPERSEDED BY COMMAND LINE VALUE. (2)
                      00042  LIST  P = 16F628A, F = INHX8M, W = 2, X = ON, R = DEC, MM = ON, N = 0, C = 255
  00000000            00043 INDF equ 0X0000
  00000001            00044 TMR0 equ 0X0001
  00000002            00045 PCL equ 0X0002
  00000003            00046 STATUS equ 0X0003
  00000004            00047 FSR equ 0X0004
  00000005            00048 PORTA equ 0X0005
  00000006            00049 PORTB equ 0X0006
  0000000A            00050 PCLATH equ 0X000A
  0000000B            00051 INTCON equ 0X000B
  0000000C            00052 PIR1 equ 0X000C
  0000000E            00053 TMR1L equ 0X000E
  0000000F            00054 TMR1LH equ 0X000F
  0000000F            00055 TMR1H equ 0X000F
  00000010            00056 T1CON equ 0X0010
  00000011            00057 TMR2 equ 0X0011
  00000012            00058 T2CON equ 0X0012
  00000015            00059 CCPR1L equ 0X0015
  00000016            00060 CCPR1LH equ 0X0016
  00000016            00061 CCPR1H equ 0X0016
  00000017            00062 CCP1CON equ 0X0017
  00000018            00063 RCSTA equ 0X0018
  00000019            00064 TXREG equ 0X0019
  0000001A            00065 RCREG equ 0X001A
  0000001F            00066 CMCON equ 0X001F
  00000081            00067 OPTION_REG equ 0X0081
  00000085            00068 TRISA equ 0X0085
  00000086            00069 TRISB equ 0X0086
  0000008C            00070 PIE1 equ 0X008C
  0000008E            00071 PCON equ 0X008E
  00000092            00072 PR2 equ 0X0092
  00000098            00073 TXSTA equ 0X0098
  00000099            00074 SPBRG equ 0X0099
  0000009A            00075 EEDATL equ 0X009A
  0000009A            00076 EEDATA equ 0X009A
  0000009A            00077 EEDAT equ 0X009A
  0000009B            00078 EEADR equ 0X009B
  0000009C            00079 EECON1 equ 0X009C
  0000009D            00080 EECON2 equ 0X009D
  0000009F            00081 VRCON equ 0X009F
  00000007            00082 IRP=7
  00000006            00083 RP1=6
  00000005            00084 RP0=5
  00000004            00085 NOT_TO=4
  00000003            00086 NOT_PD=3
  00000002            00087 Z=2
  00000001            00088 DC=1
  00000000            00089 C=0
  00000007            00090 GIE=7
  00000006            00091 PEIE=6
  00000005            00092 T0IE=5
  00000004            00093 INTE=4
  00000003            00094 RBIE=3
  00000002            00095 T0IF=2
  00000001            00096 INTF=1
  00000000            00097 RBIF=0
  00000007            00098 EEIF=7
  00000006            00099 CMIF=6
  00000005            00100 RCIF=5
  00000005            00101 PP_RCIF=5
  00000004            00102 TXIF=4
  00000004            00103 PP_TXIF=4
  00000002            00104 CCP1IF=2
  00000001            00105 TMR2IF=1
  00000000            00106 TMR1IF=0
  00000005            00107 T1CKPS1=5
  00000004            00108 T1CKPS0=4
  00000003            00109 T1OSCEN=3
  00000002            00110 NOT_T1SYNC=2
  00000001            00111 TMR1CS=1
  00000000            00112 TMR1ON=0
  00000006            00113 TOUTPS3=6
  00000005            00114 TOUTPS2=5
  00000004            00115 TOUTPS1=4
  00000003            00116 TOUTPS0=3
  00000002            00117 TMR2ON=2
  00000002            00118 PP_TMR2ON=2
  00000001            00119 T2CKPS1=1
  00000001            00120 PP_T2CKPS1=1
  00000000            00121 T2CKPS0=0
  00000000            00122 PP_T2CKPS0=0
  00000005            00123 CCP1X=5
  00000004            00124 CCP1Y=4
  00000003            00125 CCP1M3=3
  00000002            00126 CCP1M2=2
  00000001            00127 CCP1M1=1
  00000000            00128 CCP1M0=0
  00000007            00129 SPEN=7
  00000006            00130 RX9=6
  00000005            00131 SREN=5
  00000004            00132 CREN=4
  00000004            00133 PP_CREN=4
  00000003            00134 ADEN=3
  00000002            00135 FERR=2
  00000001            00136 OERR=1
  00000001            00137 PP_OERR=1
  00000000            00138 RX9D=0
  00000007            00139 C2OUT=7
  00000006            00140 C1OUT=6
  00000005            00141 C2INV=5
  00000004            00142 C1INV=4
  00000003            00143 CIS=3
  00000002            00144 CM2=2
  00000001            00145 CM1=1
  00000000            00146 CM0=0
  00000007            00147 NOT_RBPU=7
  00000006            00148 INTEDG=6
  00000005            00149 T0CS=5
  00000004            00150 T0SE=4
  00000003            00151 PSA=3
  00000002            00152 PS2=2
  00000001            00153 PS1=1
  00000000            00154 PS0=0
  00000007            00155 EEIE=7
  00000006            00156 CMIE=6
  00000005            00157 RCIE=5
  00000004            00158 TXIE=4
  00000002            00159 CCP1IE=2
  00000001            00160 TMR2IE=1
  00000000            00161 TMR1IE=0
  00000003            00162 OSCF=3
  00000001            00163 NOT_POR=1
  00000000            00164 NOT_BO=0
  00000000            00165 NOT_BOR=0
  00000000            00166 NOT_BOD=0
  00000007            00167 CSRC=7
  00000006            00168 TX9=6
  00000005            00169 TXEN=5
  00000004            00170 SYNC=4
  00000002            00171 BRGH=2
  00000001            00172 TRMT=1
  00000000            00173 TX9D=0
  00000003            00174 WRERR=3
  00000003            00175 PP_WRERR=3
  00000002            00176 WREN=2
  00000002            00177 PP_WREN=2
  00000001            00178 WR=1
  00000001            00179 PP_WR=1
  00000000            00180 RD=0
  00000000            00181 PP_RD=0
  00000007            00182 VREN=7
  00000006            00183 VROE=6
  00000005            00184 VRR=5
  00000003            00185 VR3=3
  00000002            00186 VR2=2
  00000001            00187 VR1=1
  00000000            00188 VR0=0
  000001FF            00189   __MAXRAM 0X01FF
                      00190   __BADRAM 0X07-0X09, 0X0D, 0X13-0X14, 0X1B-0X1E
                      00191   __BADRAM 0X87-0X89, 0X8D, 0X8F-0X91, 0X93-0X97, 0X9E
                      00192   __BADRAM 0X105, 0X107-0X109, 0X10C-0X11F, 0X150-0X16F
                      00193   __BADRAM 0X185, 0X187-0X189, 0X18C-0X1EF
  00003FFF            00194 BODEN_ON equ 0X3FFF
  00003FBF            00195 BODEN_OFF equ 0X3FBF
  00003FFF            00196 BOREN_ON equ 0X3FFF
  00003FBF            00197 BOREN_OFF equ 0X3FBF
  00001FFF            00198 CP_ON equ 0X1FFF
  00003FFF            00199 CP_OFF equ 0X3FFF
  00003EFF            00200 DATA_CP_ON equ 0X3EFF
  00003FFF            00201 DATA_CP_OFF equ 0X3FFF
  00003FFF            00202 PWRTE_OFF equ 0X3FFF
  00003FF7            00203 PWRTE_ON equ 0X3FF7
  00003FFF            00204 WDT_ON equ 0X3FFF
  00003FFB            00205 WDT_OFF equ 0X3FFB
  00003FFF            00206 LVP_ON equ 0X3FFF
  00003F7F            00207 LVP_OFF equ 0X3F7F
  00003FFF            00208 MCLRE_ON equ 0X3FFF
  00003FDF            00209 MCLRE_OFF equ 0X3FDF
  00003FFF            00210 RC_OSC_CLKOUT equ 0X3FFF
  00003FFE            00211 RC_OSC_NOCLKOUT equ 0X3FFE
  00003FFF            00212 ER_OSC_CLKOUT equ 0X3FFF
  00003FFE            00213 ER_OSC_NOCLKOUT equ 0X3FFE
  00003FFD            00214 INTOSC_OSC_CLKOUT equ 0X3FFD
  00003FFC            00215 INTOSC_OSC_NOCLKOUT equ 0X3FFC
  00003FFD            00216 INTRC_OSC_CLKOUT equ 0X3FFD
  00003FFC            00217 INTRC_OSC_NOCLKOUT equ 0X3FFC
  00003FEF            00218 EXTCLK_OSC equ 0X3FEF
  00003FEE            00219 HS_OSC equ 0X3FEE
  00003FED            00220 XT_OSC equ 0X3FED
  00003FEC            00221 LP_OSC equ 0X3FEC
  00003FFF            00222 CPD_OFF equ 0X3FFF
  00003EFF            00223 CPD_ON equ 0X3EFF
  00003FEF            00224 FOSC_ECIO equ 0X3FEF
  00003FFF            00225 FOSC_EXTRCCLK equ 0X3FFF
  00003FFE            00226 FOSC_EXTRCIO equ 0X3FFE
  00003FEE            00227 FOSC_HS equ 0X3FEE
  00003FFD            00228 FOSC_INTOSCCLK equ 0X3FFD
  00003FFC            00229 FOSC_INTOSCIO equ 0X3FFC
  00003FEC            00230 FOSC_LP equ 0X3FEC
  00003FED            00231 FOSC_XT equ 0X3FED
  00003FFB            00232 WDTE_OFF equ 0X3FFB
  00003FFF            00233 WDTE_ON equ 0X3FFF

                      00237 #define __16F628A 1
                      00238 #define XTAL 4
                      00239 #define _CORE 14
                      00240 #define _MAXRAM 224
                      00241 #define _RAM_END 0X00E0
                      00242 #define _MAXMEM 2048
                      00243 #define _ADC 0
                      00244 #define _ADC_RES 0
                      00245 #define _EEPROM 128
                      00246 #define _PAGES 1
                      00247 #define _BANKS 3
                      00248 #define RAM_BANKS 3
                      00249 #define _USART 1
                      00250 #define _USB 0
                      00251 #define _FLASH 0
                      00252 #define _CWRITE_BLOCK 0
                      00253 #define BANK0_START 0X20
                      00254 #define BANK0_END 0X7C
                      00255 #define BANK1_START 0X00A0
                      00256 #define BANK1_END 0X00EF
                      00257 #define BANK2_START 0X0120
                      00258 #define BANK2_END 0X014F
                      00259 #define _SYSTEM_VARIABLE_COUNT 22
  00000000            00260 ram_bank = 0
  00000000            00261 CURRENT@PAGE = 0
  00000000            00262 DEST@PAGE = 0
                      00263 #define LCD#TYPE 0
                      00264 #define __INTERRUPTS_ENABLED 1
                      00266 f@call macro pDest
                      00267         call pDest
                      00268         endm
                      00269 f@jump macro pDest
                      00270         goto pDest
                      00271         endm
                      00272 set@page macro pDest
                      00273         endm
                      00274 s@b     macro pVarin
                      00275 if((pVarin & 384) == 0)
                      00276 if(ram_bank == 1)
                      00277         bcf 3,5
                      00278 endif
                      00279 if(ram_bank == 2)
                      00280         bcf 3,6
                      00281 endif
                      00282 if(ram_bank == 3)
                      00283         bcf 3,5
                      00284         bcf 3,6
                      00285 endif
                      00286 ram_bank = 0
                      00287 endif
                      00288 if((pVarin & 384) == 128)
                      00289 if(ram_bank == 0)
                      00290         bsf 3,5
                      00291 endif
                      00292 if(ram_bank == 2)
                      00293         bsf 3,5
                      00294         bcf 3,6
                      00295 endif
                      00296 if(ram_bank == 3)
                      00297         bcf 3,6
                      00298 endif
                      00299 ram_bank = 1
                      00300 endif
                      00301 if((pVarin & 384) == 256)
                      00302 if(ram_bank == 0)
                      00303         bsf 3,6
                      00304 endif
                      00305 if(ram_bank == 1)
                      00306         bcf 3,5
                      00307         bsf 3,6
                      00308 endif
                      00309 if(ram_bank == 3)
                      00310         bcf 3,5
                      00311 endif
                      00312 ram_bank = 2
                      00313 endif
                      00314 if((pVarin & 384) == 384)
                      00315 if(ram_bank == 0)
                      00316         bsf 3,5
                      00317         bsf 3,6
                      00318 endif
                      00319 if(ram_bank == 1)
                      00320         bsf 3,6
                      00321 endif
                      00322 if(ram_bank == 2)
                      00323         bsf 3,5
                      00324 endif
                      00325 ram_bank = 3
                      00326 endif
                      00327         endm
                      00328 r@b     macro
                      00329 if((ram_bank & 1) != 0)
                      00330         bcf 3,5
                      00331 endif
                      00332 if((ram_bank & 2) != 0)
                      00333         bcf 3,6
                      00334 endif
                      00335 ram_bank = 0
                      00336         endm
                      00337 jump macro pLabel
                      00338     goto pLabel
                      00339     endm
                      00340 wreg_byte macro pByteOut
                      00341     s@b pByteOut
                      00342     movwf pByteOut
                      00343     r@b
                      00344     endm
                      00345 wreg_bit macro pVarOut,pBitout
                      00346     s@b pVarOut
                      00347     andlw 1
                      00348     btfsc STATUS,2
                      00349     bcf pVarOut,pBitout
                      00350     btfss STATUS,2
                      00351     bsf pVarOut,pBitout
                      00352     r@b
                      00353     endm
                      00354 wreg_word macro pWordOut
                      00355     s@b pWordOut
                      00356     movwf pWordOut
                      00357     s@b pWordOut+1
                      00358     clrf pWordOut+1
                      00359     r@b
                      00360     endm
                      00361 wreg_dword macro pDwordOut
                      00362     s@b pDwordOut+3
                      00363     clrf pDwordOut+3
                      00364     s@b pDwordOut+2
                      00365     clrf pDwordOut+2
                      00366     s@b pDwordOut+1
                      00367     clrf pDwordOut+1
                      00368     s@b pDwordOut
                      00369     movwf pDwordOut
                      00370     r@b
                      00371     endm
                      00372 byte_wreg macro pByteIn
                      00373     s@b pByteIn
                      00374     movf pByteIn,W
                      00375     r@b
                      00376     endm
                      00377 num_SFR macro pNumIn,pSFROut
                      00379     s@b pSFROut
                      00380     movlw pNumIn
                      00381     movwf pSFROut
                      00382     endm
                      00383 NUM16_SFR macro pNumIn,pSFROut
                      00385     s@b pSFROut
                      00386     movlw (pNumIn & 255)
                      00387     movwf pSFROut
                      00388     s@b pSFROut + 1
                      00389     movlw ((pNumIn >> 8) & 255)
                      00390     movwf pSFROut + 1
                      00391     r@b
                      00392     endm
                      00393 num_wreg macro pNumIn
                      00394     movlw (pNumIn & 255)
                      00395     endm
                      00396 num_byte macro pNumIn,pByteOut
                      00397     s@b pByteOut
                      00398 if(pNumIn == 0)
                      00399     clrf pByteOut
                      00400 else
                      00401     movlw (pNumIn & 255)
                      00402     movwf pByteOut
                      00403 endif
                      00404     r@b
                      00405     endm
                      00406 num_bit macro pNumIn,pVarOut,pBitout
                      00407     s@b pVarOut
                      00408 if((pNumIn & 1) == 1)
                      00409     bsf pVarOut,pBitout
                      00410 else
                      00411     bcf pVarOut,pBitout
                      00412 endif
                      00413     r@b
                      00414     endm
                      00415 num_word macro pNumIn,pWordOut
                      00416 if((pNumIn & 255) == 0)
                      00417     s@b pWordOut
                      00418     clrf pWordOut
                      00419 else
                      00420     s@b pWordOut
                      00421     movlw low (pNumIn)
                      00422     movwf pWordOut
                      00423 endif
                      00424 if(((pNumIn >> 8) & 255) == 0)
                      00425     s@b pWordOut+1
                      00426     clrf pWordOut+1
                      00427 else
                      00428     s@b pWordOut+1
                      00429     movlw high (pNumIn)
                      00430     movwf pWordOut+1
                      00431 endif
                      00432     r@b
                      00433     endm
                      00434 num_dword macro pNumIn,pDwordOut
                      00435 if ((pNumIn >> 24 & 255) == 0)
                      00436     s@b pDwordOut+3
                      00437     clrf pDwordOut+3
                      00438 else
                      00439     s@b pDwordOut+3
                      00440     movlw ((pNumIn >> 24) & 255)
                      00441     movwf pDwordOut+3
                      00442 endif
                      00443 if( ((pNumIn >> 16) & 255) == 0)
                      00444     s@b pDwordOut+2
                      00445     clrf pDwordOut+2
                      00446 else
                      00447     s@b pDwordOut+2
                      00448     movlw ((pNumIn >> 16) & 255)
                      00449     movwf pDwordOut+2
                      00450 endif
                      00451 if( ((pNumIn >> 8) & 255) == 0)
                      00452     s@b pDwordOut+1
                      00453     clrf pDwordOut+1
                      00454 else
                      00455     s@b pDwordOut+1
                      00456     movlw high (pNumIn)
                      00457     movwf pDwordOut+1
                      00458 endif
                      00459 if((pNumIn & 255) == 0)
                      00460     s@b pDwordOut
                      00461     clrf pDwordOut
                      00462 else
                      00463     s@b pDwordOut
                      00464     movlw low (pNumIn)
                      00465     movwf pDwordOut
                      00466 endif
                      00467     r@b
                      00468     endm
                      00469 bit_wreg macro pVarin,pBitIn
                      00470     s@b pVarin
                      00471     clrw
                      00472     btfsc pVarin,pBitIn
                      00473     movlw 1
                      00474     r@b
                      00475     endm
                      00476 bit_byte macro pVarin,pBitIn,pByteOut
                      00477     s@b pVarin
                      00478     clrw
                      00479     btfsc pVarin,pBitIn
                      00480     movlw 1
                      00481     s@b pByteOut
                      00482     movwf pByteOut
                      00483     r@b
                      00484     endm
                      00485 bit_bit macro pVarin,pBitIn,pVarOut,pBitout
                      00486 if((pVarin & 65408) == (pVarOut & 65408))
                      00487     s@b pVarOut
                      00488     btfsc pVarin,pBitIn
                      00489     bsf pVarOut,pBitout
                      00490     btfss pVarin,pBitIn
                      00491     bcf pVarOut,pBitout
                      00492 else
                      00493     s@b pVarin
                      00494     clrdc
                      00495     btfsc pVarin,pBitIn
                      00496     setdc
                      00497     s@b pVarOut
                      00498     skpndc
                      00499     bsf pVarOut,pBitout
                      00500     skpdc
                      00501     bcf pVarOut,pBitout
                      00502 endif
                      00503     endm
                      00504 bit_word macro pVarin,pBitIn,pWordOut
                      00505     s@b pWordOut+1
                      00506     clrf pWordOut+1
                      00507     bit_byte pVarin,pBitIn,pWordOut
                      00508     endm
                      00509 bit_dword macro pVarin,pBitIn,pDwordOut
                      00510     s@b pDwordOut+3
                      00511     clrf pDwordOut+3
                      00512     s@b pDwordOut+2
                      00513     clrf pDwordOut+2
                      00514     s@b pDwordOut+1
                      00515     clrf pDwordOut+1
                      00516     bit_byte pVarin,pBitIn,pDwordOut
                      00517     endm
                      00518 word_wreg macro pWordIn
                      00519     byte_wreg pWordIn
                      00520     endm
                      00521 word_byte macro pWordIn,pByteOut
                      00522     byte_byte pWordIn,pByteOut
                      00523     endm
                      00524 word_bit macro pWordIn,pVarOut,pBitout
                      00525     byte_bit pWordIn, pVarOut, pBitout
                      00526     endm
                      00527 word_word macro pWordIn,pWordOut
                      00528     s@b pWordIn+1
                      00529     movf pWordIn+1,W
                      00530     s@b pWordOut+1
                      00531     movwf pWordOut+1
                      00532     byte_byte pWordIn,pWordOut
                      00533     endm
                      00534 word_dword macro pWordIn,pDwordOut
                      00535     s@b pDwordOut+3
                      00536     clrf pDwordOut+3
                      00537     s@b pDwordOut+2
                      00538     clrf pDwordOut+2
                      00539     byte_byte pWordIn+1,pDwordOut+1
                      00540     byte_byte pWordIn,pDwordOut
                      00541     endm
                      00542 byte_byte macro pByteIn,pByteOut
                      00543     s@b pByteIn
                      00544     movf pByteIn,W
                      00545     s@b pByteOut
                      00546     movwf pByteOut
                      00547     r@b
                      00548     endm
                      00549 byte_word macro pByteIn,pWordOut
                      00550     s@b pWordOut+1
                      00551     clrf pWordOut+1
                      00552     byte_byte pByteIn,pWordOut
                      00553     endm
                      00554 byte_dword macro pByteIn,pDwordOut
                      00555     s@b pDwordOut+3
                      00556     clrf pDwordOut+3
                      00557     s@b pDwordOut+2
                      00558     clrf pDwordOut+2
                      00559     s@b pDwordOut+1
                      00560     clrf pDwordOut+1
                      00561     byte_byte pByteIn,pDwordOut
                      00562     endm
                      00563     byte_bit macro pByteIn,pVarOut,pBitout
                      00564 if((pByteIn & 65408) == (pVarOut & 65408))
                      00565     s@b pByteIn
                      00566     btfsc pByteIn,0
                      00567     bsf pVarOut,pBitout
                      00568     btfss pByteIn,0
                      00569     bcf pVarOut,pBitout
                      00570 else
                      00571     s@b pByteIn
                      00572     rrf pByteIn,W
                      00573     s@b pVarOut
                      00574     skpnc
                      00575     bsf pVarOut,pBitout
                      00576     skpc
                      00577     bcf pVarOut,pBitout
                      00578 endif
                      00579     r@b
                      00580     endm
                      00581 dword_wreg macro pDwordIn
                      00582     byte_wreg pDwordIn
                      00583     endm
                      00584 dword_byte macro pDwordIn,pByteOut
                      00585     byte_byte pDwordIn,pByteOut
                      00586     endm
                      00587 dword_word macro pDwordIn,pWordOut
                      00588     s@b pDwordIn+1
                      00589     movf pDwordIn+1,W
                      00590     s@b pWordOut+1
                      00591     movwf pWordOut+1
                      00592     byte_byte pDwordIn,pWordOut
                      00593     endm
                      00594 dword_dword macro pDwordIn,pDwordOut
                      00595     byte_byte pDwordIn+3,pDwordOut+3
                      00596     byte_byte pDwordIn+2,pDwordOut+2
                      00597     byte_byte pDwordIn+1,pDwordOut+1
                      00598     byte_byte pDwordIn,pDwordOut
                      00599     endm
                      00600 dword_bit macro pDwordIn,pVarOut,pBitout
                      00601     byte_bit pDwordIn,pVarOut,pBitout
                      00602     endm
  0000                00603 variable CURRENT@PAGE = 0
  0000                00604 variable PDESTINATION@PAGE = 0
                      00605 FIND@PAGE macro pLabelIn
                      00606 local CURRENT_ADDR = $
                      00607 local DEST_ADDR = pLabelIn
                      00608 if((CURRENT_ADDR >= 0X1800) && (CURRENT_ADDR <= 0X2000))
                      00609     CURRENT@PAGE = 3
                      00610 endif
                      00611 if((CURRENT_ADDR >= 0X1000) && (CURRENT_ADDR <= 0X1800))
                      00612     CURRENT@PAGE = 2
                      00613 endif
                      00614 if((CURRENT_ADDR >= 0X0800) && (CURRENT_ADDR <= 0X1000))
                      00615     CURRENT@PAGE = 1
                      00616 endif
                      00617 if((CURRENT_ADDR >= 0) && (CURRENT_ADDR <= 0X0800))
                      00618     CURRENT@PAGE = 0
                      00619 endif
                      00620 if((DEST_ADDR >= 0X1800) && (DEST_ADDR <= 0X2000))
                      00621     PDESTINATION@PAGE = 3
                      00622 endif
                      00623 if((DEST_ADDR >= 0X1000) && (DEST_ADDR <= 0X1800))
                      00624     PDESTINATION@PAGE = 2
                      00625 endif
                      00626 if((DEST_ADDR >= 0X0800) && (DEST_ADDR <= 0X1000))
                      00627     PDESTINATION@PAGE = 1
                      00628 endif
                      00629 if((DEST_ADDR >= 0) && (DEST_ADDR <= 0X0800))
                      00630     PDESTINATION@PAGE = 0
                      00631 endif
                      00632     endm
                      00633 num_FSR macro pNumIn
                      00634     num_byte pNumIn, FSR
                      00635 if (((pNumIn >> 8) & 255) == 1)
                      00636     bsf STATUS,7
                      00637 else
                      00638     bcf STATUS,7
                      00639 endif
                      00640     endm
                      00641 label_word macro pLabelIn,pWordOut
                      00642     movlw (pLabelIn & 255)
                      00643     s@b pWordOut
                      00644     movwf pWordOut
                      00645     movlw ((pLabelIn >> 8) & 255)
                      00646     s@b pWordOut+1
                      00647     movwf pWordOut+1
                      00648     r@b
                      00649     endm
                      00650 wreg_sword macro pWordOut
                      00651     s@b pWordOut
                      00652     movwf pWordOut
                      00653     movlw 0
                      00654     btfsc pWordOut,7
                      00655     movlw 255
                      00656     s@b pWordOut+1
                      00657     movwf pWordOut+1
                      00658     r@b
                      00659     endm
                      00660 wreg_sdword macro pDwordOut
                      00661     s@b pDwordOut
                      00662     movwf pDwordOut
                      00663     movlw 0
                      00664     btfsc pDwordOut,7
                      00665     movlw 255
                      00666     s@b pDwordOut+1
                      00667     movwf pDwordOut+1
                      00668     s@b pDwordOut+2
                      00669     movwf pDwordOut+2
                      00670     s@b pDwordOut+3
                      00671     movwf pDwordOut+3
                      00672     r@b
                      00673     endm
                      00674 byte_sword macro pByteIn,pWordOut
                      00675     s@b pByteIn
                      00676     movf pByteIn,W
                      00677     s@b pWordOut
                      00678     movwf pWordOut
                      00679     movlw 0
                      00680     btfsc pWordOut,7
                      00681     movlw 255
                      00682     s@b pWordOut+1
                      00683     movwf pWordOut+1
                      00684     r@b
                      00685     endm
                      00686 byte_sdword macro pByteIn,pDwordOut
                      00687     s@b pByteIn
                      00688     movf pByteIn,W
                      00689     s@b pDwordOut
                      00690     movwf pDwordOut
                      00691     movlw 0
                      00692     btfsc pDwordOut,7
                      00693     movlw 255
                      00694     s@b pDwordOut+1
                      00695     movwf pDwordOut+1
                      00696     s@b pDwordOut+2
                      00697     movwf pDwordOut+2
                      00698     s@b pDwordOut+3
                      00699     movwf pDwordOut+3
                      00700     r@b
                      00701     endm
                      00702 word_sdword macro pWordIn,pDwordOut
                      00703     s@b pWordIn
                      00704     movf pWordIn,W
                      00705     s@b pDwordOut
                      00706     movwf pDwordOut
                      00707     s@b pWordIn+1
                      00708     movf pWordIn+1,W
                      00709     s@b pDwordOut+1
                      00710     movwf pDwordOut+1
                      00711     movlw 0
                      00712     btfsc pDwordOut+1,7
                      00713     movlw 255
                      00714     s@b pDwordOut+2
                      00715     movwf pDwordOut+2
                      00716     s@b pDwordOut+3
                      00717     movwf pDwordOut+3
                      00718     r@b
                      00719     endm
  00000020            00722 GEN3H = 32
  00000021            00723 GEN4 = 33
  00000022            00724 GEN4H = 34
  00000023            00725 PBP#VAR0 = 35
  00000024            00726 PBP#VAR1 = 36
  00000025            00727 PBP#VAR2 = 37
  00000026            00728 PBP#VAR3 = 38
  00000027            00729 PBP#VAR4 = 39
  00000028            00730 PBP#VAR5 = 40
  00000029            00731 PBP#VAR6 = 41
  0000002A            00732 PP0 = 42
  0000002B            00733 PP0H = 43
  0000002C            00734 PP1 = 44
  0000002D            00735 PP1H = 45
  0000002E            00736 PP3 = 46
  0000002F            00737 PP3H = 47
  00000030            00738 PP6 = 48
  00000031            00739 PP6H = 49
  00000032            00740 PP7 = 50
  00000033            00741 PP7H = 51
  00000034            00742 PP8 = 52
  00000035            00743 PP8H = 53
  0000007D            00744 FSRSAVE = 125
  0000007E            00745 SSAVE = 126
  0000007F            00746 WSAVE = 127
  00000036            00747 Katar = 54
  00000037            00748 KatarH = 55
  00000038            00749 Position = 56
  00000039            00750 buffer = 57
  0000003A            00751 PortDurum = 58
  0000003B            00752 enuzun = 59
  0000003C            00753 Satir = 60
  003C                00754 variable Satir#0=60,Satir#1=61,Satir#2=62,Satir#3=63
  0040                00755 variable Satir#4=64,Satir#5=65,Satir#6=66,Satir#7=67
  0044                00756 variable Satir#8=68,Satir#9=69,Satir#10=70,Satir#11=71
  0048                00757 variable Satir#12=72,Satir#13=73,Satir#14=74,Satir#15=75
  0000004C            00758 Degerler = 76
  004C                00759 variable Degerler#0=76,Degerler#1=77,Degerler#2=78,Degerler#3=79
  0050                00760 variable Degerler#4=80,Degerler#5=81,Degerler#6=82,Degerler#7=83
  0054                00761 variable Degerler#8=84,Degerler#9=85,Degerler#10=86,Degerler#11=87
  0058                00762 variable Degerler#12=88,Degerler#13=89,Degerler#14=90,Degerler#15=91
  005C                00763 variable Degerler#16=92,Degerler#17=93,Degerler#18=94,Degerler#19=95
  0060                00764 variable Degerler#20=96,Degerler#21=97,Degerler#22=98,Degerler#23=99
  0064                00765 variable Degerler#24=100,Degerler#25=101,Degerler#26=102,Degerler#27=103
  0068                00766 variable Degerler#28=104,Degerler#29=105,Degerler#30=106,Degerler#31=107
  006C                00767 variable Degerler#32=108,Degerler#33=109,Degerler#34=110,Degerler#35=111
  0070                00768 variable Degerler#36=112,Degerler#37=113,Degerler#38=114,Degerler#39=115
  0074                00769 variable Degerler#40=116,Degerler#41=117,Degerler#42=118,Degerler#43=119
  0078                00770 variable Degerler#44=120,Degerler#45=121,Degerler#46=122,Degerler#47=123
  007C                00771 variable Degerler#48=124,Degerler#49=160,Degerler#50=161,Degerler#51=162
  00A3                00772 variable Degerler#52=163,Degerler#53=164,Degerler#54=165,Degerler#55=166
  00A7                00773 variable Degerler#56=167,Degerler#57=168,Degerler#58=169,Degerler#59=170
  00AB                00774 variable Degerler#60=171,Degerler#61=172,Degerler#62=173,Degerler#63=174
  00AF                00775 variable Degerler#64=175,Degerler#65=176,Degerler#66=177,Degerler#67=178
  00B3                00776 variable Degerler#68=179,Degerler#69=180,Degerler#70=181,Degerler#71=182
  00B7                00777 variable Degerler#72=183,Degerler#73=184,Degerler#74=185,Degerler#75=186
  00BB                00778 variable Degerler#76=187,Degerler#77=188,Degerler#78=189,Degerler#79=190
  00BF                00779 variable Degerler#80=191,Degerler#81=192,Degerler#82=193,Degerler#83=194
  00C3                00780 variable Degerler#84=195,Degerler#85=196,Degerler#86=197,Degerler#87=198
  00C7                00781 variable Degerler#88=199,Degerler#89=200
  000000C9            00782 say = 201
  000000CA            00783 Segments = 202
  00CA                00784 variable Segments#0=202,Segments#1=203,Segments#2=204,Segments#3=205
  00CE                00785 variable Segments#4=206,Segments#5=207,Segments#6=208
  000000D1            00786 DecValue = 209
  000000D2            00787 ResValue = 210
  000000D3            00788 FrqDigits = 211
  00D3                00789 variable FrqDigits#0=211,FrqDigits#1=212,FrqDigits#2=213,FrqDigits#3=214
  00D7                00790 variable FrqDigits#4=215,FrqDigits#5=216,FrqDigits#6=217
  000000DA            00791 Channel = 218
  000000DB            00792 Cmd = 219
  000000DC            00793 LcdData = 220
  000000DD            00794 DATAm = 221
  000000DE            00795 don = 222
  000000DF            00796 _High__Context_Store = 223
  00DF                00797 variable _High__Context_Store#0=223,_High__Context_Store#1=224,_High__Context_Store#2=225,_High__Context_Store#3=226
  00E3                00798 variable _High__Context_Store#4=227,_High__Context_Store#5=228
                      00799 #define SCL PORTA,3
                      00800 #define SDA PORTA,4
                      00801 #define RBIF INTCON,0
                      00802 #define INTF INTCON,1
                      00803 #define T0IF INTCON,2
                      00804 #define RBIE INTCON,3
                      00805 #define INTE INTCON,4
                      00806 #define T0IE INTCON,5
                      00807 #define PEIE INTCON,6
                      00808 #define GIE INTCON,7
                      00809 #define INTEDG OPTION_REG,6
                      00810 #define NOT_RBPU OPTION_REG,7
                      00811 #define __XTAL 4
0000                  00812 proton#code#start
0000                  00813         org 0
0000   2857           00814         goto proton#main#start
0004                  00815         org 4
0004   00FF           00816         movwf WSAVE
0005   0803           00817         movf STATUS,W
0006   0183           00818         clrf STATUS
0007   00FE           00819         movwf SSAVE
0008   0804           00820         movf FSR,W
0009   00FD           00821         movwf FSRSAVE
000A   287C           00822         goto myinterrupt
000B                  00823 FIND@ADDRESS
000B   1383           00824         bcf STATUS,7
000C   00B0           00825         movwf 48
000D   01B1           00826         clrf 49
000E   0DB1           00827         rlf 49,F
000F   3000           00828         movlw 0
0010   0231           00829         subwf 49,W
0011   307D           00830         movlw 125
0012   1903           00831         skpnz
0013   0230           00832         subwf 48,W
0014   1C03           00833         skpc
0015   281C           00834         goto $ + 7
0016   1BAF           00835         btfsc 47,7
0017   281C           00836         goto $ + 5
0018   3023           00837         movlw 35
0019   07B0           00838         addwf 48,F
001A   1803           00839         skpnc
001B   0AB1           00840         incf 49,F
001C   3000           00841         movlw 0
001D   0231           00842         subwf 49,W
001E   30F0           00843         movlw 240
001F   1903           00844         skpnz
0020   0230           00845         subwf 48,W
0021   1C03           00846         skpc
0022   2826           00847         goto FA@EXT
0023   1783           00848         bsf STATUS,7
0024   3030           00849         movlw 48
0025   07B0           00850         addwf 48,F
0026                  00851 FA@EXT
0026   0830           00852         movf 48,W
0027   0084           00853         movwf 4
0028   0008           00854         return
0029                  00855 __DELAY_MS_
0029   01AD           00856         clrf 45
002A                  00857 __DELAY_MS_W_
002A   00AC           00858         movwf 44
002B                  00859 DLY@P
002B   30FF           00860         movlw 255
002C   07AC           00861         addwf 44,F
002D   1C03           00862         skpc
002E   07AD           00863         addwf 45,F
002F   1C03           00864         skpc
0030   284B           00865         goto I@NT
0031   3003           00866         movlw 3
0032   00AB           00867         movwf 43
0033   30DF           00868         movlw 223
0034   2037           00869         call __DELAY_US_W_
0035   282B           00870         goto DLY@P
0036                  00871 __DELAY_US_
0036   01AB           00872         clrf 43
0037                  00873 __DELAY_US_W_
0037   3EE8           00874         addlw 232
0038   00AA           00875         movwf 42
0039   09AB           00876         comf 43,F
003A   30FC           00877         movlw 252
003B   1C03           00878         skpc
003C   2840           00879         goto $ + 4
003D   07AA           00880         addwf 42,F
003E   1803           00881         skpnc
003F   283D           00882         goto $ - 2
0040   07AA           00883         addwf 42,F
0041   0000           00884         nop
0042   0FAB           00885         incfsz 43,F
0043   283D           00886         goto $ - 6
0044   182A           00887         btfsc 42,0
0045   2846           00888         goto $ + 1
0046   1CAA           00889         btfss 42,1
0047   284A           00890         goto $ + 3
0048   0000           00891         nop
0049   284A           00892         goto $ + 1
004A   0008           00893         return
004B                  00894 I@NT
004B   1383           00895         bcf STATUS,7
004C   1283           00896         bcf STATUS,5
004D   1303           00897         bcf STATUS,6
004E   0008           00898         return
004F                  00899 PUT@ARRAY
004F   00AE           00900         movwf 46
0050                  00901 PUT@ARRAYW
0050   0821           00902         movf 33,W
0051   00AF           00903         movwf 47
0052   0722           00904         addwf 34,W
0053   200B           00905         call FIND@ADDRESS
0054   082E           00906         movf 46,W
0055   0080           00907         movwf INDF
0056   284B           00908         goto I@NT
0057                  00909 proton#main#start
0057   0183           00910         clrf STATUS

  00000058            00913 F2_SOF equ $ ; RACAL_BC39B_I2C_LCD_PIC16F628.PRP
  00000058            00914 F2_EOF equ $ ; RACAL_BC39B_I2C_LCD_PIC16F628.PRP
  00000058            00915 F1_SOF equ $ ; RACAL_BC39B_I2C_LCD_PIC16F628.BAS
  00000058            00916 F1_000020 equ $ ; IN [RACAL_BC39B_I2C_LCD_PIC16F628.BAS] ALL_DIGITAL = TRUE
0058   3007           00917         movlw 7
0059   009F           00918         movwf CMCON
  0000005A            00919 F1_000026 equ $ ; IN [RACAL_BC39B_I2C_LCD_PIC16F628.BAS] TRISB = 255
005A   30FF           00920         movlw 255
005B   1683           00921         bsf STATUS,5
  00000001            00922 ram_bank = 1
005C   0086           00923         movwf TRISB
  0000005D            00924 F1_000027 equ $ ; IN [RACAL_BC39B_I2C_LCD_PIC16F628.BAS] TRISA = 0
005D   0185           00925         clrf TRISA
  0000005E            00926 F1_000041 equ $ ; IN [RACAL_BC39B_I2C_LCD_PIC16F628.BAS] INTEDG = 1
005E   1701           00927         bsf OPTION_REG,6
  0000005F            00928 F1_000048 equ $ ; IN [RACAL_BC39B_I2C_LCD_PIC16F628.BAS] enuzun=0
005F   1283           00929         bcf STATUS,5
  00000000            00930 ram_bank = 0
0060   01BB           00931         clrf enuzun
  00000061            00932 F1_000053 equ $ ; IN [RACAL_BC39B_I2C_LCD_PIC16F628.BAS] FOR say = 0 TO 80
0061   1683           00933         bsf STATUS,5
  00000001            00934 ram_bank = 1
0062   01C9           00935         clrf say
0063                  00936 FR@LB2
0063   1283           00937         bcf STATUS,5
  00000000            00938 ram_bank = 0
0064   3051           00939         movlw 81
0065   1683           00940         bsf STATUS,5
  00000001            00941 ram_bank = 1
0066   0249           00942         subwf say,W
0067   1283           00943         bcf STATUS,5
  00000000            00944 ram_bank = 0
0068   1803           00945         btfsc STATUS,0
0069   2878           00946         goto NX@LB3
  0000006A            00947 F1_000054 equ $ ; IN [RACAL_BC39B_I2C_LCD_PIC16F628.BAS] Degerler[say] =8
006A   1683           00948         bsf STATUS,5
  00000001            00949 ram_bank = 1
006B   0849           00950         movf say,W
006C   1283           00951         bcf STATUS,5
  00000000            00952 ram_bank = 0
006D   00A2           00953         movwf GEN4H
006E   304C           00954         movlw 76
006F   00A1           00955         movwf GEN4
0070   3008           00956         movlw 8
0071   204F           00957         call PUT@ARRAY
0072                  00958 CT@LB4
  00000072            00959 F1_000055 equ $ ; IN [RACAL_BC39B_I2C_LCD_PIC16F628.BAS] NEXT say
0072   3001           00960         movlw 1
0073   1683           00961         bsf STATUS,5
  00000001            00962 ram_bank = 1
0074   07C9           00963         addwf say,F
0075   1283           00964         bcf STATUS,5
  00000000            00965 ram_bank = 0
0076   1C03           00966         btfss STATUS,0
0077   2863           00967         goto FR@LB2
0078                  00968 NX@LB3
  00000078            00969 F1_000057 equ $ ; IN [RACAL_BC39B_I2C_LCD_PIC16F628.BAS] Katar = 0
0078   01B7           00970         clrf KatarH
0079   01B6           00971         clrf Katar
  0000007A            00972 F1_000058 equ $ ; IN [RACAL_BC39B_I2C_LCD_PIC16F628.BAS] Position = 0
007A   01B8           00973         clrf Position
  0000007B            00974 F1_000061 equ $ ; IN [RACAL_BC39B_I2C_LCD_PIC16F628.BAS] goto Basla
007B   28C5           00975         goto Basla
007C                  00976 myinterrupt
  00000000            00977 ram_bank = 0
  0000007C            00978 F1_000065 equ $ ; IN [RACAL_BC39B_I2C_LCD_PIC16F628.BAS] CONTEXT SAVE
  00000000            00979 ram_bank = 0
007C   30DF           00980         movlw _High__Context_Store & 255
007D   0084           00981         movwf FSR
007E   1383           00982         bcf STATUS,7
007F   0821           00983         movf GEN4,W
0080   0080           00984         movwf INDF
0081   0A84           00985         incf FSR,F
0082   0822           00986         movf GEN4H,W
0083   0080           00987         movwf INDF
0084   0A84           00988         incf FSR,F
0085   082E           00989         movf PP3,W
0086   0080           00990         movwf INDF
0087   0A84           00991         incf FSR,F
0088   082F           00992         movf PP3H,W
0089   0080           00993         movwf INDF
008A   0A84           00994         incf FSR,F
008B   0830           00995         movf PP6,W
008C   0080           00996         movwf INDF
008D   0A84           00997         incf FSR,F
008E   0831           00998         movf PP6H,W
008F   0080           00999         movwf INDF
  00000090            01000 F1_000066 equ $ ; IN [RACAL_BC39B_I2C_LCD_PIC16F628.BAS] GIE = 0
0090   138B           01001         bcf INTCON,7
  00000091            01002 F1_000068 equ $ ; IN [RACAL_BC39B_I2C_LCD_PIC16F628.BAS] if INTF = 1 THEN
0091   1C8B           01003         btfss INTCON,1
0092   28A8           01004         goto BC@LL6
  00000093            01005 F1_000070 equ $ ; IN [RACAL_BC39B_I2C_LCD_PIC16F628.BAS] if PORTB.1 = 1 THEN
                      01006         set@page BC@LL8
0093   1C86           01007         btfss PORTB,1
0094   289F           01008         goto BC@LL8
  00000095            01009 F1_000072 equ $ ; IN [RACAL_BC39B_I2C_LCD_PIC16F628.BAS] Degerler[Position] = PORTB.3
0095   0838           01010         movf Position,W
0096   00A2           01011         movwf GEN4H
0097   304C           01012         movlw 76
0098   00A1           01013         movwf GEN4
0099   3000           01014         movlw 0
009A   1986           01015         btfsc PORTB,3
009B   3001           01016         movlw 1
009C   204F           01017         call PUT@ARRAY
  0000009D            01018 F1_000073 equ $ ; IN [RACAL_BC39B_I2C_LCD_PIC16F628.BAS] Position = Position + 1
009D   0AB8           01019         incf Position,F
009E   28A7           01020         goto BC@LL9
009F                  01021 BC@LL8
  0000009F            01022 F1_000074 equ $ ; IN [RACAL_BC39B_I2C_LCD_PIC16F628.BAS] else
  0000009F            01023 F1_000075 equ $ ; IN [RACAL_BC39B_I2C_LCD_PIC16F628.BAS] if Position > 40 THEN Position = 0
009F   3029           01024         movlw 41
00A0   0238           01025         subwf Position,W
00A1   1C03           01026         btfss STATUS,0
00A2   28A4           01027         goto BC@LL11
00A3   01B8           01028         clrf Position
00A4                  01029 BC@LL11
  000000A4            01030 F1_000076 equ $ ; IN [RACAL_BC39B_I2C_LCD_PIC16F628.BAS] Katar = Katar + 1
00A4   0AB6           01031         incf Katar,F
00A5   1903           01032         btfsc STATUS,2
00A6   0AB7           01033         incf KatarH,F
  000000A7            01034 F1_000077 equ $ ; IN [RACAL_BC39B_I2C_LCD_PIC16F628.BAS] endif
00A7                  01035 BC@LL9
  000000A7            01036 F1_000078 equ $ ; IN [RACAL_BC39B_I2C_LCD_PIC16F628.BAS] INTF = 0
00A7   108B           01037         bcf INTCON,1
  000000A8            01038 F1_000079 equ $ ; IN [RACAL_BC39B_I2C_LCD_PIC16F628.BAS] endif
00A8                  01039 BC@LL6
00A8                  01040 Cikis
  000000A8            01041 F1_000083 equ $ ; IN [RACAL_BC39B_I2C_LCD_PIC16F628.BAS] GIE = 1
00A8   178B           01042         bsf INTCON,7
  000000A9            01043 F1_000084 equ $ ; IN [RACAL_BC39B_I2C_LCD_PIC16F628.BAS] CONTEXT RESTORE
00A9   30DF           01044         movlw _High__Context_Store & 255
00AA   0084           01045         movwf FSR
00AB   1383           01046         bcf STATUS,7
00AC   0800           01047         movf INDF,W
00AD   00A1           01048         movwf GEN4
00AE   0A84           01049         incf FSR,F
00AF   0800           01050         movf INDF,W
00B0   00A2           01051         movwf GEN4H
00B1   0A84           01052         incf FSR,F
00B2   0800           01053         movf INDF,W
00B3   00AE           01054         movwf PP3
00B4   0A84           01055         incf FSR,F
00B5   0800           01056         movf INDF,W
00B6   00AF           01057         movwf PP3H
00B7   0A84           01058         incf FSR,F
00B8   0800           01059         movf INDF,W
00B9   00B0           01060         movwf PP6
00BA   0A84           01061         incf FSR,F
00BB   0800           01062         movf INDF,W
00BC   00B1           01063         movwf PP6H
00BD   087D           01064         movf FSRSAVE,W
00BE   0084           01065         movwf FSR
00BF   087E           01066         movf SSAVE,W
00C0   0083           01067         movwf STATUS
00C1   0EFF           01068         swapf WSAVE,F
00C2   0E7F           01069         swapf WSAVE,W
00C3   0009           01070         retfie
  000000C4            01071 F1_000085 equ $ ; IN [RACAL_BC39B_I2C_LCD_PIC16F628.BAS] return
00C4   0008           01072         return
00C5                  01073 Basla
  000000C5            01074 F1_000092 equ $ ; IN [RACAL_BC39B_I2C_LCD_PIC16F628.BAS] INTE = 1
00C5   160B           01075         bsf INTCON,4
  000000C6            01076 F1_000094 equ $ ; IN [RACAL_BC39B_I2C_LCD_PIC16F628.BAS] GIE = 1
00C6   178B           01077         bsf INTCON,7
  000000C7            01078 F1_000099 equ $ ; IN [RACAL_BC39B_I2C_LCD_PIC16F628.BAS] ResValue=0
00C7   1683           01079         bsf STATUS,5
  00000001            01080 ram_bank = 1
00C8   01D2           01081         clrf ResValue
00C9                  01082 LCDHazirla
00C9   1283           01083         bcf STATUS,5
  00000000            01084 ram_bank = 0
  000000CA            01085 F1_000107 equ $ ; IN [RACAL_BC39B_I2C_LCD_PIC16F628.BAS] Cmd = $2A
00CA   302A           01086         movlw 42
00CB   1683           01087         bsf STATUS,5
  00000001            01088 ram_bank = 1
00CC   00DB           01089         movwf Cmd
  000000CD            01090 F1_000108 equ $ ; IN [RACAL_BC39B_I2C_LCD_PIC16F628.BAS] GOSUB KomutGonder
00CD   1283           01091         bcf STATUS,5
  00000000            01092 ram_bank = 0
00CE   2541           01093         call KomutGonder
  000000CF            01094 F1_000109 equ $ ; IN [RACAL_BC39B_I2C_LCD_PIC16F628.BAS] DELAYMS 1
00CF   3001           01095         movlw 1
00D0   2029           01096         call __DELAY_MS_
  000000D1            01097 F1_000110 equ $ ; IN [RACAL_BC39B_I2C_LCD_PIC16F628.BAS] Cmd = $71
00D1   3071           01098         movlw 113
00D2   1683           01099         bsf STATUS,5
  00000001            01100 ram_bank = 1
00D3   00DB           01101         movwf Cmd
  000000D4            01102 F1_000111 equ $ ; IN [RACAL_BC39B_I2C_LCD_PIC16F628.BAS] GOSUB KomutGonder
00D4   1283           01103         bcf STATUS,5
  00000000            01104 ram_bank = 0
00D5   2541           01105         call KomutGonder
  000000D6            01106 F1_000112 equ $ ; IN [RACAL_BC39B_I2C_LCD_PIC16F628.BAS] DELAYMS 1
00D6   3001           01107         movlw 1
00D7   2029           01108         call __DELAY_MS_
  000000D8            01109 F1_000113 equ $ ; IN [RACAL_BC39B_I2C_LCD_PIC16F628.BAS] Cmd = $5C
00D8   305C           01110         movlw 92
00D9   1683           01111         bsf STATUS,5
  00000001            01112 ram_bank = 1
00DA   00DB           01113         movwf Cmd
  000000DB            01114 F1_000114 equ $ ; IN [RACAL_BC39B_I2C_LCD_PIC16F628.BAS] GOSUB KomutGonder
00DB   1283           01115         bcf STATUS,5
  00000000            01116 ram_bank = 0
00DC   2541           01117         call KomutGonder
  000000DD            01118 F1_000115 equ $ ; IN [RACAL_BC39B_I2C_LCD_PIC16F628.BAS] DELAYMS 1
00DD   3001           01119         movlw 1
00DE   2029           01120         call __DELAY_MS_
  000000DF            01121 F1_000116 equ $ ; IN [RACAL_BC39B_I2C_LCD_PIC16F628.BAS] Cmd = $28
00DF   3028           01122         movlw 40
00E0   1683           01123         bsf STATUS,5
  00000001            01124 ram_bank = 1
00E1   00DB           01125         movwf Cmd
  000000E2            01126 F1_000117 equ $ ; IN [RACAL_BC39B_I2C_LCD_PIC16F628.BAS] GOSUB KomutGonder
00E2   1283           01127         bcf STATUS,5
  00000000            01128 ram_bank = 0
00E3   2541           01129         call KomutGonder
  000000E4            01130 F1_000118 equ $ ; IN [RACAL_BC39B_I2C_LCD_PIC16F628.BAS] DELAYMS 1
00E4   3001           01131         movlw 1
00E5   2029           01132         call __DELAY_MS_
  000000E6            01133 F1_000119 equ $ ; IN [RACAL_BC39B_I2C_LCD_PIC16F628.BAS] Cmd = $08
00E6   3008           01134         movlw 8
00E7   1683           01135         bsf STATUS,5
  00000001            01136 ram_bank = 1
00E8   00DB           01137         movwf Cmd
  000000E9            01138 F1_000120 equ $ ; IN [RACAL_BC39B_I2C_LCD_PIC16F628.BAS] GOSUB KomutGonder
00E9   1283           01139         bcf STATUS,5
  00000000            01140 ram_bank = 0
00EA   2541           01141         call KomutGonder
  000000EB            01142 F1_000121 equ $ ; IN [RACAL_BC39B_I2C_LCD_PIC16F628.BAS] DELAYMS 1
00EB   3001           01143         movlw 1
00EC   2029           01144         call __DELAY_MS_
  000000ED            01145 F1_000122 equ $ ; IN [RACAL_BC39B_I2C_LCD_PIC16F628.BAS] Cmd = $2A
00ED   302A           01146         movlw 42
00EE   1683           01147         bsf STATUS,5
  00000001            01148 ram_bank = 1
00EF   00DB           01149         movwf Cmd
  000000F0            01150 F1_000123 equ $ ; IN [RACAL_BC39B_I2C_LCD_PIC16F628.BAS] GOSUB KomutGonder
00F0   1283           01151         bcf STATUS,5
  00000000            01152 ram_bank = 0
00F1   2541           01153         call KomutGonder
  000000F2            01154 F1_000124 equ $ ; IN [RACAL_BC39B_I2C_LCD_PIC16F628.BAS] DELAYMS 1
00F2   3001           01155         movlw 1
00F3   2029           01156         call __DELAY_MS_
  000000F4            01157 F1_000125 equ $ ; IN [RACAL_BC39B_I2C_LCD_PIC16F628.BAS] Cmd = $79
00F4   3079           01158         movlw 121
00F5   1683           01159         bsf STATUS,5
  00000001            01160 ram_bank = 1
00F6   00DB           01161         movwf Cmd
  000000F7            01162 F1_000126 equ $ ; IN [RACAL_BC39B_I2C_LCD_PIC16F628.BAS] GOSUB KomutGonder
00F7   1283           01163         bcf STATUS,5
  00000000            01164 ram_bank = 0
00F8   2541           01165         call KomutGonder
  000000F9            01166 F1_000127 equ $ ; IN [RACAL_BC39B_I2C_LCD_PIC16F628.BAS] DELAYMS 1
00F9   3001           01167         movlw 1
00FA   2029           01168         call __DELAY_MS_
  000000FB            01169 F1_000128 equ $ ; IN [RACAL_BC39B_I2C_LCD_PIC16F628.BAS] Cmd = $D5
00FB   30D5           01170         movlw 213
00FC   1683           01171         bsf STATUS,5
  00000001            01172 ram_bank = 1
00FD   00DB           01173         movwf Cmd
  000000FE            01174 F1_000129 equ $ ; IN [RACAL_BC39B_I2C_LCD_PIC16F628.BAS] GOSUB KomutGonder
00FE   1283           01175         bcf STATUS,5
  00000000            01176 ram_bank = 0
00FF   2541           01177         call KomutGonder
  00000100            01178 F1_000130 equ $ ; IN [RACAL_BC39B_I2C_LCD_PIC16F628.BAS] DELAYMS 1
0100   3001           01179         movlw 1
0101   2029           01180         call __DELAY_MS_
  00000102            01181 F1_000131 equ $ ; IN [RACAL_BC39B_I2C_LCD_PIC16F628.BAS] Cmd = $70
0102   3070           01182         movlw 112
0103   1683           01183         bsf STATUS,5
  00000001            01184 ram_bank = 1
0104   00DB           01185         movwf Cmd
  00000105            01186 F1_000132 equ $ ; IN [RACAL_BC39B_I2C_LCD_PIC16F628.BAS] GOSUB KomutGonder
0105   1283           01187         bcf STATUS,5
  00000000            01188 ram_bank = 0
0106   2541           01189         call KomutGonder
  00000107            01190 F1_000133 equ $ ; IN [RACAL_BC39B_I2C_LCD_PIC16F628.BAS] DELAYMS 1
0107   3001           01191         movlw 1
0108   2029           01192         call __DELAY_MS_
  00000109            01193 F1_000134 equ $ ; IN [RACAL_BC39B_I2C_LCD_PIC16F628.BAS] Cmd = $78
0109   3078           01194         movlw 120
010A   1683           01195         bsf STATUS,5
  00000001            01196 ram_bank = 1
010B   00DB           01197         movwf Cmd
  0000010C            01198 F1_000135 equ $ ; IN [RACAL_BC39B_I2C_LCD_PIC16F628.BAS] GOSUB KomutGonder
010C   1283           01199         bcf STATUS,5
  00000000            01200 ram_bank = 0
010D   2541           01201         call KomutGonder
  0000010E            01202 F1_000136 equ $ ; IN [RACAL_BC39B_I2C_LCD_PIC16F628.BAS] DELAYMS 1
010E   3001           01203         movlw 1
010F   2029           01204         call __DELAY_MS_
  00000110            01205 F1_000137 equ $ ; IN [RACAL_BC39B_I2C_LCD_PIC16F628.BAS] Cmd = $08
0110   3008           01206         movlw 8
0111   1683           01207         bsf STATUS,5
  00000001            01208 ram_bank = 1
0112   00DB           01209         movwf Cmd
  00000113            01210 F1_000138 equ $ ; IN [RACAL_BC39B_I2C_LCD_PIC16F628.BAS] GOSUB KomutGonder
0113   1283           01211         bcf STATUS,5
  00000000            01212 ram_bank = 0
0114   2541           01213         call KomutGonder
  00000115            01214 F1_000139 equ $ ; IN [RACAL_BC39B_I2C_LCD_PIC16F628.BAS] DELAYMS 1
0115   3001           01215         movlw 1
0116   2029           01216         call __DELAY_MS_
  00000117            01217 F1_000140 equ $ ; IN [RACAL_BC39B_I2C_LCD_PIC16F628.BAS] Cmd = $06
0117   3006           01218         movlw 6
0118   1683           01219         bsf STATUS,5
  00000001            01220 ram_bank = 1
0119   00DB           01221         movwf Cmd
  0000011A            01222 F1_000141 equ $ ; IN [RACAL_BC39B_I2C_LCD_PIC16F628.BAS] GOSUB KomutGonder
011A   1283           01223         bcf STATUS,5
  00000000            01224 ram_bank = 0
011B   2541           01225         call KomutGonder
  0000011C            01226 F1_000142 equ $ ; IN [RACAL_BC39B_I2C_LCD_PIC16F628.BAS] DELAYMS 1
011C   3001           01227         movlw 1
011D   2029           01228         call __DELAY_MS_
  0000011E            01229 F1_000144 equ $ ; IN [RACAL_BC39B_I2C_LCD_PIC16F628.BAS] Cmd = $2A
011E   302A           01230         movlw 42
011F   1683           01231         bsf STATUS,5
  00000001            01232 ram_bank = 1
0120   00DB           01233         movwf Cmd
  00000121            01234 F1_000145 equ $ ; IN [RACAL_BC39B_I2C_LCD_PIC16F628.BAS] GOSUB KomutGonder
0121   1283           01235         bcf STATUS,5
  00000000            01236 ram_bank = 0
0122   2541           01237         call KomutGonder
  00000123            01238 F1_000146 equ $ ; IN [RACAL_BC39B_I2C_LCD_PIC16F628.BAS] DELAYMS 1
0123   3001           01239         movlw 1
0124   2029           01240         call __DELAY_MS_
  00000125            01241 F1_000147 equ $ ; IN [RACAL_BC39B_I2C_LCD_PIC16F628.BAS] Cmd = $79
0125   3079           01242         movlw 121
0126   1683           01243         bsf STATUS,5
  00000001            01244 ram_bank = 1
0127   00DB           01245         movwf Cmd
  00000128            01246 F1_000148 equ $ ; IN [RACAL_BC39B_I2C_LCD_PIC16F628.BAS] GOSUB KomutGonder
0128   1283           01247         bcf STATUS,5
  00000000            01248 ram_bank = 0
0129   2541           01249         call KomutGonder
  0000012A            01250 F1_000149 equ $ ; IN [RACAL_BC39B_I2C_LCD_PIC16F628.BAS] DELAYMS 1
012A   3001           01251         movlw 1
012B   2029           01252         call __DELAY_MS_
  0000012C            01253 F1_000151 equ $ ; IN [RACAL_BC39B_I2C_LCD_PIC16F628.BAS] Cmd = $72
012C   3072           01254         movlw 114
012D   1683           01255         bsf STATUS,5
  00000001            01256 ram_bank = 1
012E   00DB           01257         movwf Cmd
  0000012F            01258 F1_000152 equ $ ; IN [RACAL_BC39B_I2C_LCD_PIC16F628.BAS] GOSUB KomutGonder
012F   1283           01259         bcf STATUS,5
  00000000            01260 ram_bank = 0
0130   2541           01261         call KomutGonder
  00000131            01262 F1_000153 equ $ ; IN [RACAL_BC39B_I2C_LCD_PIC16F628.BAS] DELAYMS 1
0131   3001           01263         movlw 1
0132   2029           01264         call __DELAY_MS_
  00000133            01265 F1_000154 equ $ ; IN [RACAL_BC39B_I2C_LCD_PIC16F628.BAS] Cmd = $0
0133   1683           01266         bsf STATUS,5
  00000001            01267 ram_bank = 1
0134   01DB           01268         clrf Cmd
  00000135            01269 F1_000155 equ $ ; IN [RACAL_BC39B_I2C_LCD_PIC16F628.BAS] GOSUB KomutGonder
0135   1283           01270         bcf STATUS,5
  00000000            01271 ram_bank = 0
0136   2541           01272         call KomutGonder
  00000137            01273 F1_000156 equ $ ; IN [RACAL_BC39B_I2C_LCD_PIC16F628.BAS] DELAYMS 1
0137   3001           01274         movlw 1
0138   2029           01275         call __DELAY_MS_
  00000139            01276 F1_000157 equ $ ; IN [RACAL_BC39B_I2C_LCD_PIC16F628.BAS] Cmd = $DA
0139   30DA           01277         movlw 218
013A   1683           01278         bsf STATUS,5
  00000001            01279 ram_bank = 1
013B   00DB           01280         movwf Cmd
  0000013C            01281 F1_000158 equ $ ; IN [RACAL_BC39B_I2C_LCD_PIC16F628.BAS] GOSUB KomutGonder
013C   1283           01282         bcf STATUS,5
  00000000            01283 ram_bank = 0
013D   2541           01284         call KomutGonder
  0000013E            01285 F1_000159 equ $ ; IN [RACAL_BC39B_I2C_LCD_PIC16F628.BAS] DELAYMS 1
013E   3001           01286         movlw 1
013F   2029           01287         call __DELAY_MS_
  00000140            01288 F1_000160 equ $ ; IN [RACAL_BC39B_I2C_LCD_PIC16F628.BAS] Cmd = $10
0140   3010           01289         movlw 16
0141   1683           01290         bsf STATUS,5
  00000001            01291 ram_bank = 1
0142   00DB           01292         movwf Cmd
  00000143            01293 F1_000161 equ $ ; IN [RACAL_BC39B_I2C_LCD_PIC16F628.BAS] GOSUB KomutGonder
0143   1283           01294         bcf STATUS,5
  00000000            01295 ram_bank = 0
0144   2541           01296         call KomutGonder
  00000145            01297 F1_000162 equ $ ; IN [RACAL_BC39B_I2C_LCD_PIC16F628.BAS] DELAYMS 1
0145   3001           01298         movlw 1
0146   2029           01299         call __DELAY_MS_
  00000147            01300 F1_000163 equ $ ; IN [RACAL_BC39B_I2C_LCD_PIC16F628.BAS] Cmd = $81
0147   3081           01301         movlw 129
0148   1683           01302         bsf STATUS,5
  00000001            01303 ram_bank = 1
0149   00DB           01304         movwf Cmd
  0000014A            01305 F1_000164 equ $ ; IN [RACAL_BC39B_I2C_LCD_PIC16F628.BAS] GOSUB KomutGonder
014A   1283           01306         bcf STATUS,5
  00000000            01307 ram_bank = 0
014B   2541           01308         call KomutGonder
  0000014C            01309 F1_000165 equ $ ; IN [RACAL_BC39B_I2C_LCD_PIC16F628.BAS] DELAYMS 1
014C   3001           01310         movlw 1
014D   2029           01311         call __DELAY_MS_
  0000014E            01312 F1_000166 equ $ ; IN [RACAL_BC39B_I2C_LCD_PIC16F628.BAS] Cmd = $FF
014E   30FF           01313         movlw 255
014F   1683           01314         bsf STATUS,5
  00000001            01315 ram_bank = 1
0150   00DB           01316         movwf Cmd
  00000151            01317 F1_000167 equ $ ; IN [RACAL_BC39B_I2C_LCD_PIC16F628.BAS] GOSUB KomutGonder
0151   1283           01318         bcf STATUS,5
  00000000            01319 ram_bank = 0
0152   2541           01320         call KomutGonder
  00000153            01321 F1_000168 equ $ ; IN [RACAL_BC39B_I2C_LCD_PIC16F628.BAS] DELAYMS 1
0153   3001           01322         movlw 1
0154   2029           01323         call __DELAY_MS_
  00000155            01324 F1_000169 equ $ ; IN [RACAL_BC39B_I2C_LCD_PIC16F628.BAS] Cmd = $db
0155   30DB           01325         movlw 219
0156   1683           01326         bsf STATUS,5
  00000001            01327 ram_bank = 1
0157   00DB           01328         movwf Cmd
  00000158            01329 F1_000170 equ $ ; IN [RACAL_BC39B_I2C_LCD_PIC16F628.BAS] GOSUB KomutGonder
0158   1283           01330         bcf STATUS,5
  00000000            01331 ram_bank = 0
0159   2541           01332         call KomutGonder
  0000015A            01333 F1_000171 equ $ ; IN [RACAL_BC39B_I2C_LCD_PIC16F628.BAS] DELAYMS 1
015A   3001           01334         movlw 1
015B   2029           01335         call __DELAY_MS_
  0000015C            01336 F1_000172 equ $ ; IN [RACAL_BC39B_I2C_LCD_PIC16F628.BAS] Cmd = $30
015C   3030           01337         movlw 48
015D   1683           01338         bsf STATUS,5
  00000001            01339 ram_bank = 1
015E   00DB           01340         movwf Cmd
  0000015F            01341 F1_000173 equ $ ; IN [RACAL_BC39B_I2C_LCD_PIC16F628.BAS] GOSUB KomutGonder
015F   1283           01342         bcf STATUS,5
  00000000            01343 ram_bank = 0
0160   2541           01344         call KomutGonder
  00000161            01345 F1_000174 equ $ ; IN [RACAL_BC39B_I2C_LCD_PIC16F628.BAS] DELAYMS 1
0161   3001           01346         movlw 1
0162   2029           01347         call __DELAY_MS_
  00000163            01348 F1_000175 equ $ ; IN [RACAL_BC39B_I2C_LCD_PIC16F628.BAS] Cmd = $DC
0163   30DC           01349         movlw 220
0164   1683           01350         bsf STATUS,5
  00000001            01351 ram_bank = 1
0165   00DB           01352         movwf Cmd
  00000166            01353 F1_000176 equ $ ; IN [RACAL_BC39B_I2C_LCD_PIC16F628.BAS] GOSUB KomutGonder
0166   1283           01354         bcf STATUS,5
  00000000            01355 ram_bank = 0
0167   2541           01356         call KomutGonder
  00000168            01357 F1_000177 equ $ ; IN [RACAL_BC39B_I2C_LCD_PIC16F628.BAS] DELAYMS 1
0168   3001           01358         movlw 1
0169   2029           01359         call __DELAY_MS_
  0000016A            01360 F1_000178 equ $ ; IN [RACAL_BC39B_I2C_LCD_PIC16F628.BAS] Cmd = $03
016A   3003           01361         movlw 3
016B   1683           01362         bsf STATUS,5
  00000001            01363 ram_bank = 1
016C   00DB           01364         movwf Cmd
  0000016D            01365 F1_000179 equ $ ; IN [RACAL_BC39B_I2C_LCD_PIC16F628.BAS] GOSUB KomutGonder
016D   1283           01366         bcf STATUS,5
  00000000            01367 ram_bank = 0
016E   2541           01368         call KomutGonder
  0000016F            01369 F1_000180 equ $ ; IN [RACAL_BC39B_I2C_LCD_PIC16F628.BAS] DELAYMS 1
016F   3001           01370         movlw 1
0170   2029           01371         call __DELAY_MS_
  00000171            01372 F1_000181 equ $ ; IN [RACAL_BC39B_I2C_LCD_PIC16F628.BAS] Cmd = $78
0171   3078           01373         movlw 120
0172   1683           01374         bsf STATUS,5
  00000001            01375 ram_bank = 1
0173   00DB           01376         movwf Cmd
  00000174            01377 F1_000182 equ $ ; IN [RACAL_BC39B_I2C_LCD_PIC16F628.BAS] GOSUB KomutGonder
0174   1283           01378         bcf STATUS,5
  00000000            01379 ram_bank = 0
0175   2541           01380         call KomutGonder
  00000176            01381 F1_000183 equ $ ; IN [RACAL_BC39B_I2C_LCD_PIC16F628.BAS] DELAYMS 1
0176   3001           01382         movlw 1
0177   2029           01383         call __DELAY_MS_
  00000178            01384 F1_000184 equ $ ; IN [RACAL_BC39B_I2C_LCD_PIC16F628.BAS] Cmd = $28
0178   3028           01385         movlw 40
0179   1683           01386         bsf STATUS,5
  00000001            01387 ram_bank = 1
017A   00DB           01388         movwf Cmd
  0000017B            01389 F1_000185 equ $ ; IN [RACAL_BC39B_I2C_LCD_PIC16F628.BAS] GOSUB KomutGonder
017B   1283           01390         bcf STATUS,5
  00000000            01391 ram_bank = 0
017C   2541           01392         call KomutGonder
  0000017D            01393 F1_000186 equ $ ; IN [RACAL_BC39B_I2C_LCD_PIC16F628.BAS] DELAYMS 1
017D   3001           01394         movlw 1
017E   2029           01395         call __DELAY_MS_
  0000017F            01396 F1_000187 equ $ ; IN [RACAL_BC39B_I2C_LCD_PIC16F628.BAS] Cmd = $2A
017F   302A           01397         movlw 42
0180   1683           01398         bsf STATUS,5
  00000001            01399 ram_bank = 1
0181   00DB           01400         movwf Cmd
  00000182            01401 F1_000189 equ $ ; IN [RACAL_BC39B_I2C_LCD_PIC16F628.BAS] GOSUB KomutGonder
0182   1283           01402         bcf STATUS,5
  00000000            01403 ram_bank = 0
0183   2541           01404         call KomutGonder
  00000184            01405 F1_000190 equ $ ; IN [RACAL_BC39B_I2C_LCD_PIC16F628.BAS] DELAYMS 1
0184   3001           01406         movlw 1
0185   2029           01407         call __DELAY_MS_
  00000186            01408 F1_000191 equ $ ; IN [RACAL_BC39B_I2C_LCD_PIC16F628.BAS] Cmd = $06
0186   3006           01409         movlw 6
0187   1683           01410         bsf STATUS,5
  00000001            01411 ram_bank = 1
0188   00DB           01412         movwf Cmd
  00000189            01413 F1_000192 equ $ ; IN [RACAL_BC39B_I2C_LCD_PIC16F628.BAS] GOSUB KomutGonder
0189   1283           01414         bcf STATUS,5
  00000000            01415 ram_bank = 0
018A   2541           01416         call KomutGonder
  0000018B            01417 F1_000193 equ $ ; IN [RACAL_BC39B_I2C_LCD_PIC16F628.BAS] DELAYMS 1
018B   3001           01418         movlw 1
018C   2029           01419         call __DELAY_MS_
  0000018D            01420 F1_000194 equ $ ; IN [RACAL_BC39B_I2C_LCD_PIC16F628.BAS] Cmd = $08
018D   3008           01421         movlw 8
018E   1683           01422         bsf STATUS,5
  00000001            01423 ram_bank = 1
018F   00DB           01424         movwf Cmd
  00000190            01425 F1_000195 equ $ ; IN [RACAL_BC39B_I2C_LCD_PIC16F628.BAS] GOSUB KomutGonder
0190   1283           01426         bcf STATUS,5
  00000000            01427 ram_bank = 0
0191   2541           01428         call KomutGonder
  00000192            01429 F1_000196 equ $ ; IN [RACAL_BC39B_I2C_LCD_PIC16F628.BAS] DELAYMS 1
0192   3001           01430         movlw 1
0193   2029           01431         call __DELAY_MS_
  00000194            01432 F1_000197 equ $ ; IN [RACAL_BC39B_I2C_LCD_PIC16F628.BAS] Cmd = $28
0194   3028           01433         movlw 40
0195   1683           01434         bsf STATUS,5
  00000001            01435 ram_bank = 1
0196   00DB           01436         movwf Cmd
  00000197            01437 F1_000198 equ $ ; IN [RACAL_BC39B_I2C_LCD_PIC16F628.BAS] GOSUB KomutGonder
0197   1283           01438         bcf STATUS,5
  00000000            01439 ram_bank = 0
0198   2541           01440         call KomutGonder
  00000199            01441 F1_000199 equ $ ; IN [RACAL_BC39B_I2C_LCD_PIC16F628.BAS] DELAYMS 1
0199   3001           01442         movlw 1
019A   2029           01443         call __DELAY_MS_
  0000019B            01444 F1_000200 equ $ ; IN [RACAL_BC39B_I2C_LCD_PIC16F628.BAS] Cmd = $01
019B   3001           01445         movlw 1
019C   1683           01446         bsf STATUS,5
  00000001            01447 ram_bank = 1
019D   00DB           01448         movwf Cmd
  0000019E            01449 F1_000201 equ $ ; IN [RACAL_BC39B_I2C_LCD_PIC16F628.BAS] GOSUB KomutGonder
019E   1283           01450         bcf STATUS,5
  00000000            01451 ram_bank = 0
019F   2541           01452         call KomutGonder
  000001A0            01453 F1_000202 equ $ ; IN [RACAL_BC39B_I2C_LCD_PIC16F628.BAS] DELAYMS 1
01A0   3001           01454         movlw 1
01A1   2029           01455         call __DELAY_MS_
  000001A2            01456 F1_000203 equ $ ; IN [RACAL_BC39B_I2C_LCD_PIC16F628.BAS] Cmd = $80
01A2   3080           01457         movlw 128
01A3   1683           01458         bsf STATUS,5
  00000001            01459 ram_bank = 1
01A4   00DB           01460         movwf Cmd
  000001A5            01461 F1_000204 equ $ ; IN [RACAL_BC39B_I2C_LCD_PIC16F628.BAS] GOSUB KomutGonder
01A5   1283           01462         bcf STATUS,5
  00000000            01463 ram_bank = 0
01A6   2541           01464         call KomutGonder
  000001A7            01465 F1_000205 equ $ ; IN [RACAL_BC39B_I2C_LCD_PIC16F628.BAS] DELAYMS 10
01A7   300A           01466         movlw 10
01A8   2029           01467         call __DELAY_MS_
  000001A9            01468 F1_000206 equ $ ; IN [RACAL_BC39B_I2C_LCD_PIC16F628.BAS] Cmd = $0C
01A9   300C           01469         movlw 12
01AA   1683           01470         bsf STATUS,5
  00000001            01471 ram_bank = 1
01AB   00DB           01472         movwf Cmd
  000001AC            01473 F1_000207 equ $ ; IN [RACAL_BC39B_I2C_LCD_PIC16F628.BAS] GOSUB KomutGonder
01AC   1283           01474         bcf STATUS,5
  00000000            01475 ram_bank = 0
01AD   2541           01476         call KomutGonder
  000001AE            01477 F1_000210 equ $ ; IN [RACAL_BC39B_I2C_LCD_PIC16F628.BAS] DELAYMS 100
01AE   3064           01478         movlw 100
01AF   2029           01479         call __DELAY_MS_
  000001B0            01480 F1_000211 equ $ ; IN [RACAL_BC39B_I2C_LCD_PIC16F628.BAS] Cmd = $80
01B0   3080           01481         movlw 128
01B1   1683           01482         bsf STATUS,5
  00000001            01483 ram_bank = 1
01B2   00DB           01484         movwf Cmd
  000001B3            01485 F1_000212 equ $ ; IN [RACAL_BC39B_I2C_LCD_PIC16F628.BAS] GOSUB KomutGonder
01B3   1283           01486         bcf STATUS,5
  00000000            01487 ram_bank = 0
01B4   2541           01488         call KomutGonder
  000001B5            01489 F1_000213 equ $ ; IN [RACAL_BC39B_I2C_LCD_PIC16F628.BAS] Satir = " RACAL BCC39B   "
01B5   3020           01490         movlw 32
01B6   00BC           01491         movwf Satir#0
01B7   3052           01492         movlw 82
01B8   00BD           01493         movwf Satir#1
01B9   3041           01494         movlw 65
01BA   00BE           01495         movwf Satir#2
01BB   3043           01496         movlw 67
01BC   00BF           01497         movwf Satir#3
01BD   3041           01498         movlw 65
01BE   00C0           01499         movwf Satir#4
01BF   304C           01500         movlw 76
01C0   00C1           01501         movwf Satir#5
01C1   3020           01502         movlw 32
01C2   00C2           01503         movwf Satir#6
01C3   3042           01504         movlw 66
01C4   00C3           01505         movwf Satir#7
01C5   3043           01506         movlw 67
01C6   00C4           01507         movwf Satir#8
01C7   00C5           01508         movwf Satir#9
01C8   3033           01509         movlw 51
01C9   00C6           01510         movwf Satir#10
01CA   3039           01511         movlw 57
01CB   00C7           01512         movwf Satir#11
01CC   3042           01513         movlw 66
01CD   00C8           01514         movwf Satir#12
01CE   3020           01515         movlw 32
01CF   00C9           01516         movwf Satir#13
01D0   00CA           01517         movwf Satir#14
01D1   00CB           01518         movwf Satir#15
  000001D2            01519 F1_000214 equ $ ; IN [RACAL_BC39B_I2C_LCD_PIC16F628.BAS] GOSUB SatirGonder
01D2   25D4           01520         call SatirGonder
  000001D3            01521 F1_000215 equ $ ; IN [RACAL_BC39B_I2C_LCD_PIC16F628.BAS] Cmd = $C0
01D3   30C0           01522         movlw 192
01D4   1683           01523         bsf STATUS,5
  00000001            01524 ram_bank = 1
01D5   00DB           01525         movwf Cmd
  000001D6            01526 F1_000216 equ $ ; IN [RACAL_BC39B_I2C_LCD_PIC16F628.BAS] GOSUB KomutGonder
01D6   1283           01527         bcf STATUS,5
  00000000            01528 ram_bank = 0
01D7   2541           01529         call KomutGonder
  000001D8            01530 F1_000217 equ $ ; IN [RACAL_BC39B_I2C_LCD_PIC16F628.BAS] Satir = " TA7W BARIS-2015"
01D8   3020           01531         movlw 32
01D9   00BC           01532         movwf Satir#0
01DA   3054           01533         movlw 84
01DB   00BD           01534         movwf Satir#1
01DC   3041           01535         movlw 65
01DD   00BE           01536         movwf Satir#2
01DE   3037           01537         movlw 55
01DF   00BF           01538         movwf Satir#3
01E0   3057           01539         movlw 87
01E1   00C0           01540         movwf Satir#4
01E2   3020           01541         movlw 32
01E3   00C1           01542         movwf Satir#5
01E4   3042           01543         movlw 66
01E5   00C2           01544         movwf Satir#6
01E6   3061           01545         movlw 97
01E7   00C3           01546         movwf Satir#7
01E8   3072           01547         movlw 114
01E9   00C4           01548         movwf Satir#8
01EA   3069           01549         movlw 105
01EB   00C5           01550         movwf Satir#9
01EC   3073           01551         movlw 115
01ED   00C6           01552         movwf Satir#10
01EE   302D           01553         movlw 45
01EF   00C7           01554         movwf Satir#11
01F0   3032           01555         movlw 50
01F1   00C8           01556         movwf Satir#12
01F2   3030           01557         movlw 48
01F3   00C9           01558         movwf Satir#13
01F4   3031           01559         movlw 49
01F5   00CA           01560         movwf Satir#14
01F6   3035           01561         movlw 53
01F7   00CB           01562         movwf Satir#15
  000001F8            01563 F1_000218 equ $ ; IN [RACAL_BC39B_I2C_LCD_PIC16F628.BAS] GOSUB SatirGonder
01F8   25D4           01564         call SatirGonder
  000001F9            01565 F1_000219 equ $ ; IN [RACAL_BC39B_I2C_LCD_PIC16F628.BAS] DELAYMS 1000
01F9   3003           01566         movlw 3
01FA   00AD           01567         movwf PP1H
01FB   30E8           01568         movlw 232
01FC   202A           01569         call __DELAY_MS_W_
  000001FD            01570 F1_000220 equ $ ; IN [RACAL_BC39B_I2C_LCD_PIC16F628.BAS] DELAYMS 1000
01FD   3003           01571         movlw 3
01FE   00AD           01572         movwf PP1H
01FF   30E8           01573         movlw 232
0200   202A           01574         call __DELAY_MS_W_
  00000201            01575 F1_000221 equ $ ; IN [RACAL_BC39B_I2C_LCD_PIC16F628.BAS] DELAYMS 1000
0201   3003           01576         movlw 3
0202   00AD           01577         movwf PP1H
0203   30E8           01578         movlw 232
0204   202A           01579         call __DELAY_MS_W_
  00000205            01580 F1_000222 equ $ ; IN [RACAL_BC39B_I2C_LCD_PIC16F628.BAS] DELAYMS 1000
0205   3003           01581         movlw 3
0206   00AD           01582         movwf PP1H
0207   30E8           01583         movlw 232
0208   202A           01584         call __DELAY_MS_W_
0209                  01585 Dongu
  00000209            01586 F1_000227 equ $ ; IN [RACAL_BC39B_I2C_LCD_PIC16F628.BAS] TOGGLE PORTA.2
0209   3004           01587         movlw 4
020A   0685           01588         xorwf PORTA,F
020B   1683           01589         bsf STATUS,5
  00000001            01590 ram_bank = 1
020C   1105           01591         bcf TRISA,2
  0000020D            01592 F1_000229 equ $ ; IN [RACAL_BC39B_I2C_LCD_PIC16F628.BAS] Segments[0] = Degerler[35]
020D   1283           01593         bcf STATUS,5
  00000000            01594 ram_bank = 0
020E   086F           01595         movf Degerler#35,W
020F   00A3           01596         movwf PBP#VAR0
0210   0823           01597         movf PBP#VAR0,W
0211   1683           01598         bsf STATUS,5
  00000001            01599 ram_bank = 1
0212   00CA           01600         movwf Segments#0
  00000213            01601 F1_000230 equ $ ; IN [RACAL_BC39B_I2C_LCD_PIC16F628.BAS] Segments[1] = Degerler[31]
0213   1283           01602         bcf STATUS,5
  00000000            01603 ram_bank = 0
0214   086B           01604         movf Degerler#31,W
0215   00A3           01605         movwf PBP#VAR0
0216   0823           01606         movf PBP#VAR0,W
0217   1683           01607         bsf STATUS,5
  00000001            01608 ram_bank = 1
0218   00CB           01609         movwf Segments#1
  00000219            01610 F1_000231 equ $ ; IN [RACAL_BC39B_I2C_LCD_PIC16F628.BAS] Segments[2] = Degerler[1]
0219   1283           01611         bcf STATUS,5
  00000000            01612 ram_bank = 0
021A   084D           01613         movf Degerler#1,W
021B   00A3           01614         movwf PBP#VAR0
021C   0823           01615         movf PBP#VAR0,W
021D   1683           01616         bsf STATUS,5
  00000001            01617 ram_bank = 1
021E   00CC           01618         movwf Segments#2
  0000021F            01619 F1_000232 equ $ ; IN [RACAL_BC39B_I2C_LCD_PIC16F628.BAS] Segments[3] = Degerler[3]
021F   1283           01620         bcf STATUS,5
  00000000            01621 ram_bank = 0
0220   084F           01622         movf Degerler#3,W
0221   00A3           01623         movwf PBP#VAR0
0222   0823           01624         movf PBP#VAR0,W
0223   1683           01625         bsf STATUS,5
  00000001            01626 ram_bank = 1
0224   00CD           01627         movwf Segments#3
  00000225            01628 F1_000233 equ $ ; IN [RACAL_BC39B_I2C_LCD_PIC16F628.BAS] Segments[4] = Degerler[36]
0225   1283           01629         bcf STATUS,5
  00000000            01630 ram_bank = 0
0226   0870           01631         movf Degerler#36,W
0227   00A3           01632         movwf PBP#VAR0
0228   0823           01633         movf PBP#VAR0,W
0229   1683           01634         bsf STATUS,5
  00000001            01635 ram_bank = 1
022A   00CE           01636         movwf Segments#4
  0000022B            01637 F1_000234 equ $ ; IN [RACAL_BC39B_I2C_LCD_PIC16F628.BAS] Segments[5] = Degerler[2]
022B   1283           01638         bcf STATUS,5
  00000000            01639 ram_bank = 0
022C   084E           01640         movf Degerler#2,W
022D   00A3           01641         movwf PBP#VAR0
022E   0823           01642         movf PBP#VAR0,W
022F   1683           01643         bsf STATUS,5
  00000001            01644 ram_bank = 1
0230   00CF           01645         movwf Segments#5
  00000231            01646 F1_000235 equ $ ; IN [RACAL_BC39B_I2C_LCD_PIC16F628.BAS] Segments[6] = Degerler[65]
0231   0830           01647         movf Degerler#65,W
0232   1283           01648         bcf STATUS,5
  00000000            01649 ram_bank = 0
0233   00A3           01650         movwf PBP#VAR0
0234   0823           01651         movf PBP#VAR0,W
0235   1683           01652         bsf STATUS,5
  00000001            01653 ram_bank = 1
0236   00D0           01654         movwf Segments#6
  00000237            01655 F1_000236 equ $ ; IN [RACAL_BC39B_I2C_LCD_PIC16F628.BAS] GOSUB CalcValue
0237   1283           01656         bcf STATUS,5
  00000000            01657 ram_bank = 0
0238   2432           01658         call CalcValue
  00000239            01659 F1_000237 equ $ ; IN [RACAL_BC39B_I2C_LCD_PIC16F628.BAS] FrqDigits[1] = ResValue
0239   1683           01660         bsf STATUS,5
  00000001            01661 ram_bank = 1
023A   0852           01662         movf ResValue,W
023B   00D4           01663         movwf FrqDigits#1
  0000023C            01664 F1_000241 equ $ ; IN [RACAL_BC39B_I2C_LCD_PIC16F628.BAS] Segments[0] = Degerler[4]
023C   1283           01665         bcf STATUS,5
  00000000            01666 ram_bank = 0
023D   0850           01667         movf Degerler#4,W
023E   00A3           01668         movwf PBP#VAR0
023F   0823           01669         movf PBP#VAR0,W
0240   1683           01670         bsf STATUS,5
  00000001            01671 ram_bank = 1
0241   00CA           01672         movwf Segments#0
  00000242            01673 F1_000242 equ $ ; IN [RACAL_BC39B_I2C_LCD_PIC16F628.BAS] Segments[1] = Degerler[38]
0242   1283           01674         bcf STATUS,5
  00000000            01675 ram_bank = 0
0243   0872           01676         movf Degerler#38,W
0244   00A3           01677         movwf PBP#VAR0
0245   0823           01678         movf PBP#VAR0,W
0246   1683           01679         bsf STATUS,5
  00000001            01680 ram_bank = 1
0247   00CB           01681         movwf Segments#1
  00000248            01682 F1_000243 equ $ ; IN [RACAL_BC39B_I2C_LCD_PIC16F628.BAS] Segments[2] = Degerler[21]
0248   1283           01683         bcf STATUS,5
  00000000            01684 ram_bank = 0
0249   0861           01685         movf Degerler#21,W
024A   00A3           01686         movwf PBP#VAR0
024B   0823           01687         movf PBP#VAR0,W
024C   1683           01688         bsf STATUS,5
  00000001            01689 ram_bank = 1
024D   00CC           01690         movwf Segments#2
  0000024E            01691 F1_000244 equ $ ; IN [RACAL_BC39B_I2C_LCD_PIC16F628.BAS] Segments[3] = Degerler[55]
024E   0826           01692         movf Degerler#55,W
024F   1283           01693         bcf STATUS,5
  00000000            01694 ram_bank = 0
0250   00A3           01695         movwf PBP#VAR0
0251   0823           01696         movf PBP#VAR0,W
0252   1683           01697         bsf STATUS,5
  00000001            01698 ram_bank = 1
0253   00CD           01699         movwf Segments#3
  00000254            01700 F1_000245 equ $ ; IN [RACAL_BC39B_I2C_LCD_PIC16F628.BAS] Segments[4] = Degerler[56]
0254   0827           01701         movf Degerler#56,W
0255   1283           01702         bcf STATUS,5
  00000000            01703 ram_bank = 0
0256   00A3           01704         movwf PBP#VAR0
0257   0823           01705         movf PBP#VAR0,W
0258   1683           01706         bsf STATUS,5
  00000001            01707 ram_bank = 1
0259   00CE           01708         movwf Segments#4
  0000025A            01709 F1_000246 equ $ ; IN [RACAL_BC39B_I2C_LCD_PIC16F628.BAS] Segments[5] = Degerler[37]
025A   1283           01710         bcf STATUS,5
  00000000            01711 ram_bank = 0
025B   0871           01712         movf Degerler#37,W
025C   00A3           01713         movwf PBP#VAR0
025D   0823           01714         movf PBP#VAR0,W
025E   1683           01715         bsf STATUS,5
  00000001            01716 ram_bank = 1
025F   00CF           01717         movwf Segments#5
  00000260            01718 F1_000247 equ $ ; IN [RACAL_BC39B_I2C_LCD_PIC16F628.BAS] Segments[6] = Degerler[22]
0260   1283           01719         bcf STATUS,5
  00000000            01720 ram_bank = 0
0261   0862           01721         movf Degerler#22,W
0262   00A3           01722         movwf PBP#VAR0
0263   0823           01723         movf PBP#VAR0,W
0264   1683           01724         bsf STATUS,5
  00000001            01725 ram_bank = 1
0265   00D0           01726         movwf Segments#6
  00000266            01727 F1_000248 equ $ ; IN [RACAL_BC39B_I2C_LCD_PIC16F628.BAS] GOSUB CalcValue
0266   1283           01728         bcf STATUS,5
  00000000            01729 ram_bank = 0
0267   2432           01730         call CalcValue
  00000268            01731 F1_000249 equ $ ; IN [RACAL_BC39B_I2C_LCD_PIC16F628.BAS] FrqDigits[2] = ResValue
0268   1683           01732         bsf STATUS,5
  00000001            01733 ram_bank = 1
0269   0852           01734         movf ResValue,W
026A   00D5           01735         movwf FrqDigits#2
  0000026B            01736 F1_000253 equ $ ; IN [RACAL_BC39B_I2C_LCD_PIC16F628.BAS] Segments[0] = Degerler[5]
026B   1283           01737         bcf STATUS,5
  00000000            01738 ram_bank = 0
026C   0851           01739         movf Degerler#5,W
026D   00A3           01740         movwf PBP#VAR0
026E   0823           01741         movf PBP#VAR0,W
026F   1683           01742         bsf STATUS,5
  00000001            01743 ram_bank = 1
0270   00CA           01744         movwf Segments#0
  00000271            01745 F1_000254 equ $ ; IN [RACAL_BC39B_I2C_LCD_PIC16F628.BAS] Segments[1] = Degerler[28]
0271   1283           01746         bcf STATUS,5
  00000000            01747 ram_bank = 0
0272   0868           01748         movf Degerler#28,W
0273   00A3           01749         movwf PBP#VAR0
0274   0823           01750         movf PBP#VAR0,W
0275   1683           01751         bsf STATUS,5
  00000001            01752 ram_bank = 1
0276   00CB           01753         movwf Segments#1
  00000277            01754 F1_000255 equ $ ; IN [RACAL_BC39B_I2C_LCD_PIC16F628.BAS] Segments[2] = Degerler[29]
0277   1283           01755         bcf STATUS,5
  00000000            01756 ram_bank = 0
0278   0869           01757         movf Degerler#29,W
0279   00A3           01758         movwf PBP#VAR0
027A   0823           01759         movf PBP#VAR0,W
027B   1683           01760         bsf STATUS,5
  00000001            01761 ram_bank = 1
027C   00CC           01762         movwf Segments#2
  0000027D            01763 F1_000256 equ $ ; IN [RACAL_BC39B_I2C_LCD_PIC16F628.BAS] Segments[3] = Degerler[63]
027D   082E           01764         movf Degerler#63,W
027E   1283           01765         bcf STATUS,5
  00000000            01766 ram_bank = 0
027F   00A3           01767         movwf PBP#VAR0
0280   0823           01768         movf PBP#VAR0,W
0281   1683           01769         bsf STATUS,5
  00000001            01770 ram_bank = 1
0282   00CD           01771         movwf Segments#3
  00000283            01772 F1_000257 equ $ ; IN [RACAL_BC39B_I2C_LCD_PIC16F628.BAS] Segments[4] = Degerler[64]
0283   082F           01773         movf Degerler#64,W
0284   1283           01774         bcf STATUS,5
  00000000            01775 ram_bank = 0
0285   00A3           01776         movwf PBP#VAR0
0286   0823           01777         movf PBP#VAR0,W
0287   1683           01778         bsf STATUS,5
  00000001            01779 ram_bank = 1
0288   00CE           01780         movwf Segments#4
  00000289            01781 F1_000258 equ $ ; IN [RACAL_BC39B_I2C_LCD_PIC16F628.BAS] Segments[5] = Degerler[30]
0289   1283           01782         bcf STATUS,5
  00000000            01783 ram_bank = 0
028A   086A           01784         movf Degerler#30,W
028B   00A3           01785         movwf PBP#VAR0
028C   0823           01786         movf PBP#VAR0,W
028D   1683           01787         bsf STATUS,5
  00000001            01788 ram_bank = 1
028E   00CF           01789         movwf Segments#5
  0000028F            01790 F1_000259 equ $ ; IN [RACAL_BC39B_I2C_LCD_PIC16F628.BAS] Segments[6] = Degerler[62]
028F   082D           01791         movf Degerler#62,W
0290   1283           01792         bcf STATUS,5
  00000000            01793 ram_bank = 0
0291   00A3           01794         movwf PBP#VAR0
0292   0823           01795         movf PBP#VAR0,W
0293   1683           01796         bsf STATUS,5
  00000001            01797 ram_bank = 1
0294   00D0           01798         movwf Segments#6
  00000295            01799 F1_000260 equ $ ; IN [RACAL_BC39B_I2C_LCD_PIC16F628.BAS] GOSUB CalcValue
0295   1283           01800         bcf STATUS,5
  00000000            01801 ram_bank = 0
0296   2432           01802         call CalcValue
  00000297            01803 F1_000261 equ $ ; IN [RACAL_BC39B_I2C_LCD_PIC16F628.BAS] FrqDigits[3] = ResValue
0297   1683           01804         bsf STATUS,5
  00000001            01805 ram_bank = 1
0298   0852           01806         movf ResValue,W
0299   00D6           01807         movwf FrqDigits#3
  0000029A            01808 F1_000265 equ $ ; IN [RACAL_BC39B_I2C_LCD_PIC16F628.BAS] Segments[0] = Degerler[6]
029A   1283           01809         bcf STATUS,5
  00000000            01810 ram_bank = 0
029B   0852           01811         movf Degerler#6,W
029C   00A3           01812         movwf PBP#VAR0
029D   0823           01813         movf PBP#VAR0,W
029E   1683           01814         bsf STATUS,5
  00000001            01815 ram_bank = 1
029F   00CA           01816         movwf Segments#0
  000002A0            01817 F1_000266 equ $ ; IN [RACAL_BC39B_I2C_LCD_PIC16F628.BAS] Segments[1] = Degerler[40]
02A0   1283           01818         bcf STATUS,5
  00000000            01819 ram_bank = 0
02A1   0874           01820         movf Degerler#40,W
02A2   00A3           01821         movwf PBP#VAR0
02A3   0823           01822         movf PBP#VAR0,W
02A4   1683           01823         bsf STATUS,5
  00000001            01824 ram_bank = 1
02A5   00CB           01825         movwf Segments#1
  000002A6            01826 F1_000267 equ $ ; IN [RACAL_BC39B_I2C_LCD_PIC16F628.BAS] Segments[2] = Degerler[26]
02A6   1283           01827         bcf STATUS,5
  00000000            01828 ram_bank = 0
02A7   0866           01829         movf Degerler#26,W
02A8   00A3           01830         movwf PBP#VAR0
02A9   0823           01831         movf PBP#VAR0,W
02AA   1683           01832         bsf STATUS,5
  00000001            01833 ram_bank = 1
02AB   00CC           01834         movwf Segments#2
  000002AC            01835 F1_000268 equ $ ; IN [RACAL_BC39B_I2C_LCD_PIC16F628.BAS] Segments[3] = Degerler[60]
02AC   082B           01836         movf Degerler#60,W
02AD   1283           01837         bcf STATUS,5
  00000000            01838 ram_bank = 0
02AE   00A3           01839         movwf PBP#VAR0
02AF   0823           01840         movf PBP#VAR0,W
02B0   1683           01841         bsf STATUS,5
  00000001            01842 ram_bank = 1
02B1   00CD           01843         movwf Segments#3
  000002B2            01844 F1_000269 equ $ ; IN [RACAL_BC39B_I2C_LCD_PIC16F628.BAS] Segments[4] = Degerler[61]
02B2   082C           01845         movf Degerler#61,W
02B3   1283           01846         bcf STATUS,5
  00000000            01847 ram_bank = 0
02B4   00A3           01848         movwf PBP#VAR0
02B5   0823           01849         movf PBP#VAR0,W
02B6   1683           01850         bsf STATUS,5
  00000001            01851 ram_bank = 1
02B7   00CE           01852         movwf Segments#4
  000002B8            01853 F1_000270 equ $ ; IN [RACAL_BC39B_I2C_LCD_PIC16F628.BAS] Segments[5] = Degerler[39]
02B8   1283           01854         bcf STATUS,5
  00000000            01855 ram_bank = 0
02B9   0873           01856         movf Degerler#39,W
02BA   00A3           01857         movwf PBP#VAR0
02BB   0823           01858         movf PBP#VAR0,W
02BC   1683           01859         bsf STATUS,5
  00000001            01860 ram_bank = 1
02BD   00CF           01861         movwf Segments#5
  000002BE            01862 F1_000271 equ $ ; IN [RACAL_BC39B_I2C_LCD_PIC16F628.BAS] Segments[6] = Degerler[27]
02BE   1283           01863         bcf STATUS,5
  00000000            01864 ram_bank = 0
02BF   0867           01865         movf Degerler#27,W
02C0   00A3           01866         movwf PBP#VAR0
02C1   0823           01867         movf PBP#VAR0,W
02C2   1683           01868         bsf STATUS,5
  00000001            01869 ram_bank = 1
02C3   00D0           01870         movwf Segments#6
  000002C4            01871 F1_000272 equ $ ; IN [RACAL_BC39B_I2C_LCD_PIC16F628.BAS] GOSUB CalcValue
02C4   1283           01872         bcf STATUS,5
  00000000            01873 ram_bank = 0
02C5   2432           01874         call CalcValue
  000002C6            01875 F1_000273 equ $ ; IN [RACAL_BC39B_I2C_LCD_PIC16F628.BAS] FrqDigits[4] = ResValue
02C6   1683           01876         bsf STATUS,5
  00000001            01877 ram_bank = 1
02C7   0852           01878         movf ResValue,W
02C8   00D7           01879         movwf FrqDigits#4
  000002C9            01880 F1_000276 equ $ ; IN [RACAL_BC39B_I2C_LCD_PIC16F628.BAS] Segments[0] = Degerler[7]
02C9   1283           01881         bcf STATUS,5
  00000000            01882 ram_bank = 0
02CA   0853           01883         movf Degerler#7,W
02CB   00A3           01884         movwf PBP#VAR0
02CC   0823           01885         movf PBP#VAR0,W
02CD   1683           01886         bsf STATUS,5
  00000001            01887 ram_bank = 1
02CE   00CA           01888         movwf Segments#0
  000002CF            01889 F1_000277 equ $ ; IN [RACAL_BC39B_I2C_LCD_PIC16F628.BAS] Segments[1] = Degerler[23]
02CF   1283           01890         bcf STATUS,5
  00000000            01891 ram_bank = 0
02D0   0863           01892         movf Degerler#23,W
02D1   00A3           01893         movwf PBP#VAR0
02D2   0823           01894         movf PBP#VAR0,W
02D3   1683           01895         bsf STATUS,5
  00000001            01896 ram_bank = 1
02D4   00CB           01897         movwf Segments#1
  000002D5            01898 F1_000278 equ $ ; IN [RACAL_BC39B_I2C_LCD_PIC16F628.BAS] Segments[2] = Degerler[24]
02D5   1283           01899         bcf STATUS,5
  00000000            01900 ram_bank = 0
02D6   0864           01901         movf Degerler#24,W
02D7   00A3           01902         movwf PBP#VAR0
02D8   0823           01903         movf PBP#VAR0,W
02D9   1683           01904         bsf STATUS,5
  00000001            01905 ram_bank = 1
02DA   00CC           01906         movwf Segments#2
  000002DB            01907 F1_000279 equ $ ; IN [RACAL_BC39B_I2C_LCD_PIC16F628.BAS] Segments[3] = Degerler[58]
02DB   0829           01908         movf Degerler#58,W
02DC   1283           01909         bcf STATUS,5
  00000000            01910 ram_bank = 0
02DD   00A3           01911         movwf PBP#VAR0
02DE   0823           01912         movf PBP#VAR0,W
02DF   1683           01913         bsf STATUS,5
  00000001            01914 ram_bank = 1
02E0   00CD           01915         movwf Segments#3
  000002E1            01916 F1_000280 equ $ ; IN [RACAL_BC39B_I2C_LCD_PIC16F628.BAS] Segments[4] = Degerler[59]
02E1   082A           01917         movf Degerler#59,W
02E2   1283           01918         bcf STATUS,5
  00000000            01919 ram_bank = 0
02E3   00A3           01920         movwf PBP#VAR0
02E4   0823           01921         movf PBP#VAR0,W
02E5   1683           01922         bsf STATUS,5
  00000001            01923 ram_bank = 1
02E6   00CE           01924         movwf Segments#4
  000002E7            01925 F1_000281 equ $ ; IN [RACAL_BC39B_I2C_LCD_PIC16F628.BAS] Segments[5] = Degerler[25]
02E7   1283           01926         bcf STATUS,5
  00000000            01927 ram_bank = 0
02E8   0865           01928         movf Degerler#25,W
02E9   00A3           01929         movwf PBP#VAR0
02EA   0823           01930         movf PBP#VAR0,W
02EB   1683           01931         bsf STATUS,5
  00000001            01932 ram_bank = 1
02EC   00CF           01933         movwf Segments#5
  000002ED            01934 F1_000282 equ $ ; IN [RACAL_BC39B_I2C_LCD_PIC16F628.BAS] Segments[6] = Degerler[57]
02ED   0828           01935         movf Degerler#57,W
02EE   1283           01936         bcf STATUS,5
  00000000            01937 ram_bank = 0
02EF   00A3           01938         movwf PBP#VAR0
02F0   0823           01939         movf PBP#VAR0,W
02F1   1683           01940         bsf STATUS,5
  00000001            01941 ram_bank = 1
02F2   00D0           01942         movwf Segments#6
  000002F3            01943 F1_000283 equ $ ; IN [RACAL_BC39B_I2C_LCD_PIC16F628.BAS] GOSUB CalcValue
02F3   1283           01944         bcf STATUS,5
  00000000            01945 ram_bank = 0
02F4   2432           01946         call CalcValue
  000002F5            01947 F1_000284 equ $ ; IN [RACAL_BC39B_I2C_LCD_PIC16F628.BAS] FrqDigits[5] = ResValue
02F5   1683           01948         bsf STATUS,5
  00000001            01949 ram_bank = 1
02F6   0852           01950         movf ResValue,W
02F7   00D8           01951         movwf FrqDigits#5
  000002F8            01952 F1_000287 equ $ ; IN [RACAL_BC39B_I2C_LCD_PIC16F628.BAS] Segments[0] = Degerler[8]
02F8   1283           01953         bcf STATUS,5
  00000000            01954 ram_bank = 0
02F9   0854           01955         movf Degerler#8,W
02FA   00A3           01956         movwf PBP#VAR0
02FB   0823           01957         movf PBP#VAR0,W
02FC   1683           01958         bsf STATUS,5
  00000001            01959 ram_bank = 1
02FD   00CA           01960         movwf Segments#0
  000002FE            01961 F1_000288 equ $ ; IN [RACAL_BC39B_I2C_LCD_PIC16F628.BAS] Segments[1] = Degerler[42]
02FE   1283           01962         bcf STATUS,5
  00000000            01963 ram_bank = 0
02FF   0876           01964         movf Degerler#42,W
0300   00A3           01965         movwf PBP#VAR0
0301   0823           01966         movf PBP#VAR0,W
0302   1683           01967         bsf STATUS,5
  00000001            01968 ram_bank = 1
0303   00CB           01969         movwf Segments#1
  00000304            01970 F1_000289 equ $ ; IN [RACAL_BC39B_I2C_LCD_PIC16F628.BAS] Segments[2] = Degerler[19]
0304   1283           01971         bcf STATUS,5
  00000000            01972 ram_bank = 0
0305   085F           01973         movf Degerler#19,W
0306   00A3           01974         movwf PBP#VAR0
0307   0823           01975         movf PBP#VAR0,W
0308   1683           01976         bsf STATUS,5
  00000001            01977 ram_bank = 1
0309   00CC           01978         movwf Segments#2
  0000030A            01979 F1_000290 equ $ ; IN [RACAL_BC39B_I2C_LCD_PIC16F628.BAS] Segments[3] = Degerler[53]
030A   0824           01980         movf Degerler#53,W
030B   1283           01981         bcf STATUS,5
  00000000            01982 ram_bank = 0
030C   00A3           01983         movwf PBP#VAR0
030D   0823           01984         movf PBP#VAR0,W
030E   1683           01985         bsf STATUS,5
  00000001            01986 ram_bank = 1
030F   00CD           01987         movwf Segments#3
  00000310            01988 F1_000291 equ $ ; IN [RACAL_BC39B_I2C_LCD_PIC16F628.BAS] Segments[4] = Degerler[54]
0310   0825           01989         movf Degerler#54,W
0311   1283           01990         bcf STATUS,5
  00000000            01991 ram_bank = 0
0312   00A3           01992         movwf PBP#VAR0
0313   0823           01993         movf PBP#VAR0,W
0314   1683           01994         bsf STATUS,5
  00000001            01995 ram_bank = 1
0315   00CE           01996         movwf Segments#4
  00000316            01997 F1_000292 equ $ ; IN [RACAL_BC39B_I2C_LCD_PIC16F628.BAS] Segments[5] = Degerler[41]
0316   1283           01998         bcf STATUS,5
  00000000            01999 ram_bank = 0
0317   0875           02000         movf Degerler#41,W
0318   00A3           02001         movwf PBP#VAR0
0319   0823           02002         movf PBP#VAR0,W
031A   1683           02003         bsf STATUS,5
  00000001            02004 ram_bank = 1
031B   00CF           02005         movwf Segments#5
  0000031C            02006 F1_000293 equ $ ; IN [RACAL_BC39B_I2C_LCD_PIC16F628.BAS] Segments[6] = Degerler[20]
031C   1283           02007         bcf STATUS,5
  00000000            02008 ram_bank = 0
031D   0860           02009         movf Degerler#20,W
031E   00A3           02010         movwf PBP#VAR0
031F   0823           02011         movf PBP#VAR0,W
0320   1683           02012         bsf STATUS,5
  00000001            02013 ram_bank = 1
0321   00D0           02014         movwf Segments#6
  00000322            02015 F1_000294 equ $ ; IN [RACAL_BC39B_I2C_LCD_PIC16F628.BAS] GOSUB CalcValue
0322   1283           02016         bcf STATUS,5
  00000000            02017 ram_bank = 0
0323   2432           02018         call CalcValue
  00000324            02019 F1_000295 equ $ ; IN [RACAL_BC39B_I2C_LCD_PIC16F628.BAS] FrqDigits[6] = ResValue
0324   1683           02020         bsf STATUS,5
  00000001            02021 ram_bank = 1
0325   0852           02022         movf ResValue,W
0326   00D9           02023         movwf FrqDigits#6
  00000327            02024 F1_000298 equ $ ; IN [RACAL_BC39B_I2C_LCD_PIC16F628.BAS] Segments[0] = Degerler[15]
0327   1283           02025         bcf STATUS,5
  00000000            02026 ram_bank = 0
0328   085B           02027         movf Degerler#15,W
0329   00A3           02028         movwf PBP#VAR0
032A   0823           02029         movf PBP#VAR0,W
032B   1683           02030         bsf STATUS,5
  00000001            02031 ram_bank = 1
032C   00CA           02032         movwf Segments#0
  0000032D            02033 F1_000299 equ $ ; IN [RACAL_BC39B_I2C_LCD_PIC16F628.BAS] Segments[1] = Degerler[49]
032D   0820           02034         movf Degerler#49,W
032E   1283           02035         bcf STATUS,5
  00000000            02036 ram_bank = 0
032F   00A3           02037         movwf PBP#VAR0
0330   0823           02038         movf PBP#VAR0,W
0331   1683           02039         bsf STATUS,5
  00000001            02040 ram_bank = 1
0332   00CB           02041         movwf Segments#1
  00000333            02042 F1_000300 equ $ ; IN [RACAL_BC39B_I2C_LCD_PIC16F628.BAS] Segments[2] = Degerler[50]
0333   0821           02043         movf Degerler#50,W
0334   1283           02044         bcf STATUS,5
  00000000            02045 ram_bank = 0
0335   00A3           02046         movwf PBP#VAR0
0336   0823           02047         movf PBP#VAR0,W
0337   1683           02048         bsf STATUS,5
  00000001            02049 ram_bank = 1
0338   00CC           02050         movwf Segments#2
  00000339            02051 F1_000301 equ $ ; IN [RACAL_BC39B_I2C_LCD_PIC16F628.BAS] Segments[3] = Degerler[43]
0339   1283           02052         bcf STATUS,5
  00000000            02053 ram_bank = 0
033A   0877           02054         movf Degerler#43,W
033B   00A3           02055         movwf PBP#VAR0
033C   0823           02056         movf PBP#VAR0,W
033D   1683           02057         bsf STATUS,5
  00000001            02058 ram_bank = 1
033E   00CD           02059         movwf Segments#3
  0000033F            02060 F1_000302 equ $ ; IN [RACAL_BC39B_I2C_LCD_PIC16F628.BAS] Segments[4] = Degerler[48]
033F   1283           02061         bcf STATUS,5
  00000000            02062 ram_bank = 0
0340   087C           02063         movf Degerler#48,W
0341   00A3           02064         movwf PBP#VAR0
0342   0823           02065         movf PBP#VAR0,W
0343   1683           02066         bsf STATUS,5
  00000001            02067 ram_bank = 1
0344   00CE           02068         movwf Segments#4
  00000345            02069 F1_000303 equ $ ; IN [RACAL_BC39B_I2C_LCD_PIC16F628.BAS] Segments[5] = Degerler[14]
0345   1283           02070         bcf STATUS,5
  00000000            02071 ram_bank = 0
0346   085A           02072         movf Degerler#14,W
0347   00A3           02073         movwf PBP#VAR0
0348   0823           02074         movf PBP#VAR0,W
0349   1683           02075         bsf STATUS,5
  00000001            02076 ram_bank = 1
034A   00CF           02077         movwf Segments#5
  0000034B            02078 F1_000304 equ $ ; IN [RACAL_BC39B_I2C_LCD_PIC16F628.BAS] Segments[6] = Degerler[16]
034B   1283           02079         bcf STATUS,5
  00000000            02080 ram_bank = 0
034C   085C           02081         movf Degerler#16,W
034D   00A3           02082         movwf PBP#VAR0
034E   0823           02083         movf PBP#VAR0,W
034F   1683           02084         bsf STATUS,5
  00000001            02085 ram_bank = 1
0350   00D0           02086         movwf Segments#6
  00000351            02087 F1_000305 equ $ ; IN [RACAL_BC39B_I2C_LCD_PIC16F628.BAS] GOSUB CalcValue
0351   1283           02088         bcf STATUS,5
  00000000            02089 ram_bank = 0
0352   2432           02090         call CalcValue
  00000353            02091 F1_000306 equ $ ; IN [RACAL_BC39B_I2C_LCD_PIC16F628.BAS] Channel = ResValue
0353   1683           02092         bsf STATUS,5
  00000001            02093 ram_bank = 1
0354   0852           02094         movf ResValue,W
0355   00DA           02095         movwf Channel
  00000356            02096 F1_000308 equ $ ; IN [RACAL_BC39B_I2C_LCD_PIC16F628.BAS] Cmd = $80
0356   3080           02097         movlw 128
0357   00DB           02098         movwf Cmd
  00000358            02099 F1_000309 equ $ ; IN [RACAL_BC39B_I2C_LCD_PIC16F628.BAS] GOSUB KomutGonder
0358   1283           02100         bcf STATUS,5
  00000000            02101 ram_bank = 0
0359   2541           02102         call KomutGonder
  0000035A            02103 F1_000311 equ $ ; IN [RACAL_BC39B_I2C_LCD_PIC16F628.BAS] if Channel != " " THEN
035A   3020           02104         movlw 32
035B   1683           02105         bsf STATUS,5
  00000001            02106 ram_bank = 1
035C   025A           02107         subwf Channel,W
035D   1283           02108         bcf STATUS,5
  00000000            02109 ram_bank = 0
035E   1903           02110         btfsc STATUS,2
035F   2B69           02111         goto BC@LL13
  00000360            02112 F1_000312 equ $ ; IN [RACAL_BC39B_I2C_LCD_PIC16F628.BAS] Satir[0] = "C"
0360   3043           02113         movlw 67
0361   00BC           02114         movwf Satir#0
  00000362            02115 F1_000313 equ $ ; IN [RACAL_BC39B_I2C_LCD_PIC16F628.BAS] Satir[1] = "H"
0362   3048           02116         movlw 72
0363   00BD           02117         movwf Satir#1
  00000364            02118 F1_000314 equ $ ; IN [RACAL_BC39B_I2C_LCD_PIC16F628.BAS] Satir[2] = Channel
0364   1683           02119         bsf STATUS,5
  00000001            02120 ram_bank = 1
0365   085A           02121         movf Channel,W
0366   1283           02122         bcf STATUS,5
  00000000            02123 ram_bank = 0
0367   00BE           02124         movwf Satir#2
0368   2B6D           02125         goto BC@LL14
0369                  02126 BC@LL13
  00000369            02127 F1_000315 equ $ ; IN [RACAL_BC39B_I2C_LCD_PIC16F628.BAS] else
  00000369            02128 F1_000316 equ $ ; IN [RACAL_BC39B_I2C_LCD_PIC16F628.BAS] Satir[0] = " "
0369   3020           02129         movlw 32
036A   00BC           02130         movwf Satir#0
  0000036B            02131 F1_000317 equ $ ; IN [RACAL_BC39B_I2C_LCD_PIC16F628.BAS] Satir[1] = " "
036B   00BD           02132         movwf Satir#1
  0000036C            02133 F1_000318 equ $ ; IN [RACAL_BC39B_I2C_LCD_PIC16F628.BAS] Satir[2] = " "
036C   00BE           02134         movwf Satir#2
  0000036D            02135 F1_000319 equ $ ; IN [RACAL_BC39B_I2C_LCD_PIC16F628.BAS] endif
036D                  02136 BC@LL14
  0000036D            02137 F1_000320 equ $ ; IN [RACAL_BC39B_I2C_LCD_PIC16F628.BAS] Satir[3] = " "
036D   3020           02138         movlw 32
036E   00BF           02139         movwf Satir#3
  0000036F            02140 F1_000321 equ $ ; IN [RACAL_BC39B_I2C_LCD_PIC16F628.BAS] if Degerler[47] = 1 THEN
036F   087B           02141         movf Degerler#47,W
0370   00A3           02142         movwf PBP#VAR0
0371   3001           02143         movlw 1
0372   0223           02144         subwf PBP#VAR0,W
0373   1D03           02145         btfss STATUS,2
0374   2B7A           02146         goto BC@LL16
  00000375            02147 F1_000322 equ $ ; IN [RACAL_BC39B_I2C_LCD_PIC16F628.BAS] Satir[4] = "T"
0375   3054           02148         movlw 84
0376   00C0           02149         movwf Satir#4
  00000377            02150 F1_000323 equ $ ; IN [RACAL_BC39B_I2C_LCD_PIC16F628.BAS] Satir[5] = "X"
0377   3058           02151         movlw 88
0378   00C1           02152         movwf Satir#5
0379   2B7D           02153         goto BC@LL17
037A                  02154 BC@LL16
  0000037A            02155 F1_000324 equ $ ; IN [RACAL_BC39B_I2C_LCD_PIC16F628.BAS] else
  0000037A            02156 F1_000325 equ $ ; IN [RACAL_BC39B_I2C_LCD_PIC16F628.BAS] Satir[4] = " "
037A   3020           02157         movlw 32
037B   00C0           02158         movwf Satir#4
  0000037C            02159 F1_000326 equ $ ; IN [RACAL_BC39B_I2C_LCD_PIC16F628.BAS] Satir[5] = " "
037C   00C1           02160         movwf Satir#5
  0000037D            02161 F1_000327 equ $ ; IN [RACAL_BC39B_I2C_LCD_PIC16F628.BAS] endif
037D                  02162 BC@LL17
  0000037D            02163 F1_000328 equ $ ; IN [RACAL_BC39B_I2C_LCD_PIC16F628.BAS] Satir[6] = " "
037D   3020           02164         movlw 32
037E   00C2           02165         movwf Satir#6
  0000037F            02166 F1_000329 equ $ ; IN [RACAL_BC39B_I2C_LCD_PIC16F628.BAS] if Degerler[10] = 1 THEN
037F   0856           02167         movf Degerler#10,W
0380   00A3           02168         movwf PBP#VAR0
0381   3001           02169         movlw 1
0382   0223           02170         subwf PBP#VAR0,W
0383   1D03           02171         btfss STATUS,2
0384   2B88           02172         goto BC@LL19
  00000385            02173 F1_000330 equ $ ; IN [RACAL_BC39B_I2C_LCD_PIC16F628.BAS] Satir[7] = "H"
0385   3048           02174         movlw 72
0386   00C3           02175         movwf Satir#7
0387   2B8A           02176         goto BC@LL20
0388                  02177 BC@LL19
  00000388            02178 F1_000331 equ $ ; IN [RACAL_BC39B_I2C_LCD_PIC16F628.BAS] else
  00000388            02179 F1_000332 equ $ ; IN [RACAL_BC39B_I2C_LCD_PIC16F628.BAS] Satir[7] = "L"
0388   304C           02180         movlw 76
0389   00C3           02181         movwf Satir#7
  0000038A            02182 F1_000333 equ $ ; IN [RACAL_BC39B_I2C_LCD_PIC16F628.BAS] endif
038A                  02183 BC@LL20
  0000038A            02184 F1_000334 equ $ ; IN [RACAL_BC39B_I2C_LCD_PIC16F628.BAS] Satir[8] = " "
038A   3020           02185         movlw 32
038B   00C4           02186         movwf Satir#8
  0000038C            02187 F1_000335 equ $ ; IN [RACAL_BC39B_I2C_LCD_PIC16F628.BAS] Satir[9] = FrqDigits[1]
038C   1683           02188         bsf STATUS,5
  00000001            02189 ram_bank = 1
038D   0854           02190         movf FrqDigits#1,W
038E   1283           02191         bcf STATUS,5
  00000000            02192 ram_bank = 0
038F   00A3           02193         movwf PBP#VAR0
0390   0823           02194         movf PBP#VAR0,W
0391   00C5           02195         movwf Satir#9
  00000392            02196 F1_000336 equ $ ; IN [RACAL_BC39B_I2C_LCD_PIC16F628.BAS] Satir[10] = FrqDigits[2]
0392   1683           02197         bsf STATUS,5
  00000001            02198 ram_bank = 1
0393   0855           02199         movf FrqDigits#2,W
0394   1283           02200         bcf STATUS,5
  00000000            02201 ram_bank = 0
0395   00A3           02202         movwf PBP#VAR0
0396   0823           02203         movf PBP#VAR0,W
0397   00C6           02204         movwf Satir#10
  00000398            02205 F1_000337 equ $ ; IN [RACAL_BC39B_I2C_LCD_PIC16F628.BAS] Satir[11] = "."
0398   302E           02206         movlw 46
0399   00C7           02207         movwf Satir#11
  0000039A            02208 F1_000338 equ $ ; IN [RACAL_BC39B_I2C_LCD_PIC16F628.BAS] Satir[12] = FrqDigits[3]
039A   1683           02209         bsf STATUS,5
  00000001            02210 ram_bank = 1
039B   0856           02211         movf FrqDigits#3,W
039C   1283           02212         bcf STATUS,5
  00000000            02213 ram_bank = 0
039D   00A3           02214         movwf PBP#VAR0
039E   0823           02215         movf PBP#VAR0,W
039F   00C8           02216         movwf Satir#12
  000003A0            02217 F1_000339 equ $ ; IN [RACAL_BC39B_I2C_LCD_PIC16F628.BAS] Satir[13] = FrqDigits[4]
03A0   1683           02218         bsf STATUS,5
  00000001            02219 ram_bank = 1
03A1   0857           02220         movf FrqDigits#4,W
03A2   1283           02221         bcf STATUS,5
  00000000            02222 ram_bank = 0
03A3   00A3           02223         movwf PBP#VAR0
03A4   0823           02224         movf PBP#VAR0,W
03A5   00C9           02225         movwf Satir#13
  000003A6            02226 F1_000340 equ $ ; IN [RACAL_BC39B_I2C_LCD_PIC16F628.BAS] Satir[14] = FrqDigits[5]
03A6   1683           02227         bsf STATUS,5
  00000001            02228 ram_bank = 1
03A7   0858           02229         movf FrqDigits#5,W
03A8   1283           02230         bcf STATUS,5
  00000000            02231 ram_bank = 0
03A9   00A3           02232         movwf PBP#VAR0
03AA   0823           02233         movf PBP#VAR0,W
03AB   00CA           02234         movwf Satir#14
  000003AC            02235 F1_000341 equ $ ; IN [RACAL_BC39B_I2C_LCD_PIC16F628.BAS] Satir[15] = FrqDigits[6]
03AC   1683           02236         bsf STATUS,5
  00000001            02237 ram_bank = 1
03AD   0859           02238         movf FrqDigits#6,W
03AE   1283           02239         bcf STATUS,5
  00000000            02240 ram_bank = 0
03AF   00A3           02241         movwf PBP#VAR0
03B0   0823           02242         movf PBP#VAR0,W
03B1   00CB           02243         movwf Satir#15
  000003B2            02244 F1_000342 equ $ ; IN [RACAL_BC39B_I2C_LCD_PIC16F628.BAS] GOSUB SatirGonder
03B2   25D4           02245         call SatirGonder
  000003B3            02246 F1_000343 equ $ ; IN [RACAL_BC39B_I2C_LCD_PIC16F628.BAS] DELAYMS 1
03B3   3001           02247         movlw 1
03B4   2029           02248         call __DELAY_MS_
  000003B5            02249 F1_000345 equ $ ; IN [RACAL_BC39B_I2C_LCD_PIC16F628.BAS] Cmd = $C0
03B5   30C0           02250         movlw 192
03B6   1683           02251         bsf STATUS,5
  00000001            02252 ram_bank = 1
03B7   00DB           02253         movwf Cmd
  000003B8            02254 F1_000346 equ $ ; IN [RACAL_BC39B_I2C_LCD_PIC16F628.BAS] GOSUB KomutGonder
03B8   1283           02255         bcf STATUS,5
  00000000            02256 ram_bank = 0
03B9   2541           02257         call KomutGonder
  000003BA            02258 F1_000347 equ $ ; IN [RACAL_BC39B_I2C_LCD_PIC16F628.BAS] if Degerler[52] = 1 THEN
03BA   1683           02259         bsf STATUS,5
  00000001            02260 ram_bank = 1
03BB   0823           02261         movf Degerler#52,W
03BC   1283           02262         bcf STATUS,5
  00000000            02263 ram_bank = 0
03BD   00A3           02264         movwf PBP#VAR0
03BE   3001           02265         movlw 1
03BF   0223           02266         subwf PBP#VAR0,W
03C0   1D03           02267         btfss STATUS,2
03C1   2BC5           02268         goto BC@LL22
  000003C2            02269 F1_000348 equ $ ; IN [RACAL_BC39B_I2C_LCD_PIC16F628.BAS] Satir[0] = ">"
03C2   303E           02270         movlw 62
03C3   00BC           02271         movwf Satir#0
03C4   2BC7           02272         goto BC@LL23
03C5                  02273 BC@LL22
  000003C5            02274 F1_000349 equ $ ; IN [RACAL_BC39B_I2C_LCD_PIC16F628.BAS] else
  000003C5            02275 F1_000350 equ $ ; IN [RACAL_BC39B_I2C_LCD_PIC16F628.BAS] Satir[0] = " "
03C5   3020           02276         movlw 32
03C6   00BC           02277         movwf Satir#0
  000003C7            02278 F1_000351 equ $ ; IN [RACAL_BC39B_I2C_LCD_PIC16F628.BAS] endif
03C7                  02279 BC@LL23
  000003C7            02280 F1_000352 equ $ ; IN [RACAL_BC39B_I2C_LCD_PIC16F628.BAS] if Degerler[51] = 1 THEN
03C7   1683           02281         bsf STATUS,5
  00000001            02282 ram_bank = 1
03C8   0822           02283         movf Degerler#51,W
03C9   1283           02284         bcf STATUS,5
  00000000            02285 ram_bank = 0
03CA   00A3           02286         movwf PBP#VAR0
03CB   3001           02287         movlw 1
03CC   0223           02288         subwf PBP#VAR0,W
03CD   1D03           02289         btfss STATUS,2
03CE   2BD2           02290         goto BC@LL25
  000003CF            02291 F1_000353 equ $ ; IN [RACAL_BC39B_I2C_LCD_PIC16F628.BAS] Satir[1] = ">"
03CF   303E           02292         movlw 62
03D0   00BD           02293         movwf Satir#1
03D1   2BD4           02294         goto BC@LL26
03D2                  02295 BC@LL25
  000003D2            02296 F1_000354 equ $ ; IN [RACAL_BC39B_I2C_LCD_PIC16F628.BAS] else
  000003D2            02297 F1_000355 equ $ ; IN [RACAL_BC39B_I2C_LCD_PIC16F628.BAS] Satir[1] = " "
03D2   3020           02298         movlw 32
03D3   00BD           02299         movwf Satir#1
  000003D4            02300 F1_000356 equ $ ; IN [RACAL_BC39B_I2C_LCD_PIC16F628.BAS] endif
03D4                  02301 BC@LL26
  000003D4            02302 F1_000357 equ $ ; IN [RACAL_BC39B_I2C_LCD_PIC16F628.BAS] if Degerler[17] = 1 THEN
03D4   085D           02303         movf Degerler#17,W
03D5   00A3           02304         movwf PBP#VAR0
03D6   3001           02305         movlw 1
03D7   0223           02306         subwf PBP#VAR0,W
03D8   1D03           02307         btfss STATUS,2
03D9   2BDD           02308         goto BC@LL28
  000003DA            02309 F1_000358 equ $ ; IN [RACAL_BC39B_I2C_LCD_PIC16F628.BAS] Satir[2] = ">"
03DA   303E           02310         movlw 62
03DB   00BE           02311         movwf Satir#2
03DC   2BDF           02312         goto BC@LL29
03DD                  02313 BC@LL28
  000003DD            02314 F1_000359 equ $ ; IN [RACAL_BC39B_I2C_LCD_PIC16F628.BAS] else
  000003DD            02315 F1_000360 equ $ ; IN [RACAL_BC39B_I2C_LCD_PIC16F628.BAS] Satir[2] = " "
03DD   3020           02316         movlw 32
03DE   00BE           02317         movwf Satir#2
  000003DF            02318 F1_000361 equ $ ; IN [RACAL_BC39B_I2C_LCD_PIC16F628.BAS] endif
03DF                  02319 BC@LL29
  000003DF            02320 F1_000362 equ $ ; IN [RACAL_BC39B_I2C_LCD_PIC16F628.BAS] if Degerler[18] = 1 THEN
03DF   085E           02321         movf Degerler#18,W
03E0   00A3           02322         movwf PBP#VAR0
03E1   3001           02323         movlw 1
03E2   0223           02324         subwf PBP#VAR0,W
03E3   1D03           02325         btfss STATUS,2
03E4   2BE8           02326         goto BC@LL31
  000003E5            02327 F1_000363 equ $ ; IN [RACAL_BC39B_I2C_LCD_PIC16F628.BAS] Satir[3] = ">"
03E5   303E           02328         movlw 62
03E6   00BF           02329         movwf Satir#3
03E7   2BEA           02330         goto BC@LL32
03E8                  02331 BC@LL31
  000003E8            02332 F1_000364 equ $ ; IN [RACAL_BC39B_I2C_LCD_PIC16F628.BAS] else
  000003E8            02333 F1_000365 equ $ ; IN [RACAL_BC39B_I2C_LCD_PIC16F628.BAS] Satir[3] = " "
03E8   3020           02334         movlw 32
03E9   00BF           02335         movwf Satir#3
  000003EA            02336 F1_000366 equ $ ; IN [RACAL_BC39B_I2C_LCD_PIC16F628.BAS] endif
03EA                  02337 BC@LL32
  000003EA            02338 F1_000368 equ $ ; IN [RACAL_BC39B_I2C_LCD_PIC16F628.BAS] Satir[1] = " "
03EA   3020           02339         movlw 32
03EB   00BD           02340         movwf Satir#1
  000003EC            02341 F1_000369 equ $ ; IN [RACAL_BC39B_I2C_LCD_PIC16F628.BAS] Satir[2] = " "
03EC   00BE           02342         movwf Satir#2
  000003ED            02343 F1_000370 equ $ ; IN [RACAL_BC39B_I2C_LCD_PIC16F628.BAS] Satir[3] = " "
03ED   00BF           02344         movwf Satir#3
  000003EE            02345 F1_000371 equ $ ; IN [RACAL_BC39B_I2C_LCD_PIC16F628.BAS] if Degerler[13] = 1 THEN
03EE   0859           02346         movf Degerler#13,W
03EF   00A3           02347         movwf PBP#VAR0
03F0   3001           02348         movlw 1
03F1   0223           02349         subwf PBP#VAR0,W
03F2   1D03           02350         btfss STATUS,2
03F3   2BF9           02351         goto BC@LL34
  000003F4            02352 F1_000372 equ $ ; IN [RACAL_BC39B_I2C_LCD_PIC16F628.BAS] Satir[4] = "R"
03F4   3052           02353         movlw 82
03F5   00C0           02354         movwf Satir#4
  000003F6            02355 F1_000373 equ $ ; IN [RACAL_BC39B_I2C_LCD_PIC16F628.BAS] Satir[5] = "X"
03F6   3058           02356         movlw 88
03F7   00C1           02357         movwf Satir#5
03F8   2BFC           02358         goto BC@LL35
03F9                  02359 BC@LL34
  000003F9            02360 F1_000374 equ $ ; IN [RACAL_BC39B_I2C_LCD_PIC16F628.BAS] else
  000003F9            02361 F1_000375 equ $ ; IN [RACAL_BC39B_I2C_LCD_PIC16F628.BAS] Satir[4] = " "
03F9   3020           02362         movlw 32
03FA   00C0           02363         movwf Satir#4
  000003FB            02364 F1_000376 equ $ ; IN [RACAL_BC39B_I2C_LCD_PIC16F628.BAS] Satir[5] = " "
03FB   00C1           02365         movwf Satir#5
  000003FC            02366 F1_000377 equ $ ; IN [RACAL_BC39B_I2C_LCD_PIC16F628.BAS] endif
03FC                  02367 BC@LL35
  000003FC            02368 F1_000378 equ $ ; IN [RACAL_BC39B_I2C_LCD_PIC16F628.BAS] Satir[6] = " "
03FC   3020           02369         movlw 32
03FD   00C2           02370         movwf Satir#6
  000003FE            02371 F1_000379 equ $ ; IN [RACAL_BC39B_I2C_LCD_PIC16F628.BAS] Satir[7] = " "
03FE   00C3           02372         movwf Satir#7
  000003FF            02373 F1_000380 equ $ ; IN [RACAL_BC39B_I2C_LCD_PIC16F628.BAS] Satir[8] = " "
03FF   00C4           02374         movwf Satir#8
  00000400            02375 F1_000381 equ $ ; IN [RACAL_BC39B_I2C_LCD_PIC16F628.BAS] if Degerler[11] = 1 THEN
0400   0857           02376         movf Degerler#11,W
0401   00A3           02377         movwf PBP#VAR0
0402   3001           02378         movlw 1
0403   0223           02379         subwf PBP#VAR0,W
0404   1D03           02380         btfss STATUS,2
0405   2C0B           02381         goto BC@LL37
  00000406            02382 F1_000382 equ $ ; IN [RACAL_BC39B_I2C_LCD_PIC16F628.BAS] Satir[9] = "<"
0406   303C           02383         movlw 60
0407   00C5           02384         movwf Satir#9
  00000408            02385 F1_000383 equ $ ; IN [RACAL_BC39B_I2C_LCD_PIC16F628.BAS] Satir[10] = ">"
0408   303E           02386         movlw 62
0409   00C6           02387         movwf Satir#10
040A   2C0E           02388         goto BC@LL38
040B                  02389 BC@LL37
  0000040B            02390 F1_000384 equ $ ; IN [RACAL_BC39B_I2C_LCD_PIC16F628.BAS] else
  0000040B            02391 F1_000385 equ $ ; IN [RACAL_BC39B_I2C_LCD_PIC16F628.BAS] Satir[9] = " "
040B   3020           02392         movlw 32
040C   00C5           02393         movwf Satir#9
  0000040D            02394 F1_000386 equ $ ; IN [RACAL_BC39B_I2C_LCD_PIC16F628.BAS] Satir[10] = " "
040D   00C6           02395         movwf Satir#10
  0000040E            02396 F1_000387 equ $ ; IN [RACAL_BC39B_I2C_LCD_PIC16F628.BAS] endif
040E                  02397 BC@LL38
  0000040E            02398 F1_000388 equ $ ; IN [RACAL_BC39B_I2C_LCD_PIC16F628.BAS] Satir[11] = " "
040E   3020           02399         movlw 32
040F   00C7           02400         movwf Satir#11
  00000410            02401 F1_000389 equ $ ; IN [RACAL_BC39B_I2C_LCD_PIC16F628.BAS] if Degerler[45] = 1 THEN
0410   0879           02402         movf Degerler#45,W
0411   00A3           02403         movwf PBP#VAR0
0412   3001           02404         movlw 1
0413   0223           02405         subwf PBP#VAR0,W
0414   1D03           02406         btfss STATUS,2
0415   2C19           02407         goto BC@LL40
  00000416            02408 F1_000390 equ $ ; IN [RACAL_BC39B_I2C_LCD_PIC16F628.BAS] Satir[12] = "N"
0416   306E           02409         movlw 110
0417   00C8           02410         movwf Satir#12
0418   2C1B           02411         goto BC@LL41
0419                  02412 BC@LL40
  00000419            02413 F1_000391 equ $ ; IN [RACAL_BC39B_I2C_LCD_PIC16F628.BAS] else
  00000419            02414 F1_000392 equ $ ; IN [RACAL_BC39B_I2C_LCD_PIC16F628.BAS] Satir[12] = " "
0419   3020           02415         movlw 32
041A   00C8           02416         movwf Satir#12
  0000041B            02417 F1_000393 equ $ ; IN [RACAL_BC39B_I2C_LCD_PIC16F628.BAS] endif
041B                  02418 BC@LL41
  0000041B            02419 F1_000395 equ $ ; IN [RACAL_BC39B_I2C_LCD_PIC16F628.BAS] if Degerler[12] = 1 THEN
041B   0858           02420         movf Degerler#12,W
041C   00A3           02421         movwf PBP#VAR0
041D   3001           02422         movlw 1
041E   0223           02423         subwf PBP#VAR0,W
041F   1D03           02424         btfss STATUS,2
0420   2C28           02425         goto BC@LL43
  00000421            02426 F1_000396 equ $ ; IN [RACAL_BC39B_I2C_LCD_PIC16F628.BAS] Satir[13] = "U"
0421   3055           02427         movlw 85
0422   00C9           02428         movwf Satir#13
  00000423            02429 F1_000397 equ $ ; IN [RACAL_BC39B_I2C_LCD_PIC16F628.BAS] Satir[14] = "S"
0423   3053           02430         movlw 83
0424   00CA           02431         movwf Satir#14
  00000425            02432 F1_000398 equ $ ; IN [RACAL_BC39B_I2C_LCD_PIC16F628.BAS] Satir[15] = "B"
0425   3042           02433         movlw 66
0426   00CB           02434         movwf Satir#15
0427   2C2E           02435         goto BC@LL44
0428                  02436 BC@LL43
  00000428            02437 F1_000399 equ $ ; IN [RACAL_BC39B_I2C_LCD_PIC16F628.BAS] else
  00000428            02438 F1_000400 equ $ ; IN [RACAL_BC39B_I2C_LCD_PIC16F628.BAS] Satir[13] = "L"
0428   304C           02439         movlw 76
0429   00C9           02440         movwf Satir#13
  0000042A            02441 F1_000401 equ $ ; IN [RACAL_BC39B_I2C_LCD_PIC16F628.BAS] Satir[14] = "S"
042A   3053           02442         movlw 83
042B   00CA           02443         movwf Satir#14
  0000042C            02444 F1_000402 equ $ ; IN [RACAL_BC39B_I2C_LCD_PIC16F628.BAS] Satir[15] = "B"
042C   3042           02445         movlw 66
042D   00CB           02446         movwf Satir#15
  0000042E            02447 F1_000403 equ $ ; IN [RACAL_BC39B_I2C_LCD_PIC16F628.BAS] endif
042E                  02448 BC@LL44
  0000042E            02449 F1_000404 equ $ ; IN [RACAL_BC39B_I2C_LCD_PIC16F628.BAS] GOSUB SatirGonder
042E   25D4           02450         call SatirGonder
  0000042F            02451 F1_000405 equ $ ; IN [RACAL_BC39B_I2C_LCD_PIC16F628.BAS] DELAYMS 1
042F   3001           02452         movlw 1
0430   2029           02453         call __DELAY_MS_
  00000431            02454 F1_000407 equ $ ; IN [RACAL_BC39B_I2C_LCD_PIC16F628.BAS] goto Dongu
0431   2A09           02455         goto Dongu
0432                  02456 CalcValue
  00000432            02457 F1_000413 equ $ ; IN [RACAL_BC39B_I2C_LCD_PIC16F628.BAS] DecValue = Segments[0]+Segments[1]*2+Segments[2]*4+Segments[3]*8+Segments[4]*16+Segments[5]*32+Segments[6]*64
0432   1683           02458         bsf STATUS,5
  00000001            02459 ram_bank = 1
0433   084A           02460         movf Segments#0,W
0434   1283           02461         bcf STATUS,5
  00000000            02462 ram_bank = 0
0435   00A3           02463         movwf PBP#VAR0
0436   01B3           02464         clrf PP7H
0437   0823           02465         movf PBP#VAR0,W
0438   00B2           02466         movwf PP7
0439   1683           02467         bsf STATUS,5
  00000001            02468 ram_bank = 1
043A   084B           02469         movf Segments#1,W
043B   1283           02470         bcf STATUS,5
  00000000            02471 ram_bank = 0
043C   00A4           02472         movwf PBP#VAR1
043D   01B5           02473         clrf PP8H
043E   0824           02474         movf PBP#VAR1,W
043F   00B4           02475         movwf PP8
0440   1003           02476         bcf STATUS,0
0441   0DB4           02477         rlf PP8,F
0442   0DB5           02478         rlf PP8H,F
0443   0834           02479         movf PP8,W
0444   07B2           02480         addwf PP7,F
0445   0835           02481         movf PP8H,W
0446   1803           02482         btfsc STATUS,0
0447   3E01           02483         addlw 1
0448   07B3           02484         addwf PP7H,F
0449   1683           02485         bsf STATUS,5
  00000001            02486 ram_bank = 1
044A   084C           02487         movf Segments#2,W
044B   1283           02488         bcf STATUS,5
  00000000            02489 ram_bank = 0
044C   00A5           02490         movwf PBP#VAR2
044D   01B5           02491         clrf PP8H
044E   0825           02492         movf PBP#VAR2,W
044F   00B4           02493         movwf PP8
0450   0DB4           02494         rlf PP8,F
0451   0DB5           02495         rlf PP8H,F
0452   0DB4           02496         rlf PP8,F
0453   0DB5           02497         rlf PP8H,F
0454   30FC           02498         movlw 252
0455   05B4           02499         andwf PP8,F
0456   0834           02500         movf PP8,W
0457   07B2           02501         addwf PP7,F
0458   0835           02502         movf PP8H,W
0459   1803           02503         btfsc STATUS,0
045A   3E01           02504         addlw 1
045B   07B3           02505         addwf PP7H,F
045C   1683           02506         bsf STATUS,5
  00000001            02507 ram_bank = 1
045D   084D           02508         movf Segments#3,W
045E   1283           02509         bcf STATUS,5
  00000000            02510 ram_bank = 0
045F   00A6           02511         movwf PBP#VAR3
0460   01B5           02512         clrf PP8H
0461   0826           02513         movf PBP#VAR3,W
0462   00B4           02514         movwf PP8
0463   3003           02515         movlw 3
0464   00AA           02516         movwf PP0
0465                  02517 M@LB2
0465   1003           02518         bcf STATUS,0
0466   0DB4           02519         rlf PP8,F
0467   0DB5           02520         rlf PP8H,F
0468   0BAA           02521         decfsz PP0,F
0469   2C65           02522         goto M@LB2
046A   0834           02523         movf PP8,W
046B   07B2           02524         addwf PP7,F
046C   0835           02525         movf PP8H,W
046D   1803           02526         btfsc STATUS,0
046E   3E01           02527         addlw 1
046F   07B3           02528         addwf PP7H,F
0470   1683           02529         bsf STATUS,5
  00000001            02530 ram_bank = 1
0471   084E           02531         movf Segments#4,W
0472   1283           02532         bcf STATUS,5
  00000000            02533 ram_bank = 0
0473   00A7           02534         movwf PBP#VAR4
0474   01B5           02535         clrf PP8H
0475   0827           02536         movf PBP#VAR4,W
0476   00B4           02537         movwf PP8
0477   3004           02538         movlw 4
0478   00AA           02539         movwf PP0
0479                  02540 M@LB3
0479   1003           02541         bcf STATUS,0
047A   0DB4           02542         rlf PP8,F
047B   0DB5           02543         rlf PP8H,F
047C   0BAA           02544         decfsz PP0,F
047D   2C79           02545         goto M@LB3
047E   0834           02546         movf PP8,W
047F   07B2           02547         addwf PP7,F
0480   0835           02548         movf PP8H,W
0481   1803           02549         btfsc STATUS,0
0482   3E01           02550         addlw 1
0483   07B3           02551         addwf PP7H,F
0484   1683           02552         bsf STATUS,5
  00000001            02553 ram_bank = 1
0485   084F           02554         movf Segments#5,W
0486   1283           02555         bcf STATUS,5
  00000000            02556 ram_bank = 0
0487   00A8           02557         movwf PBP#VAR5
0488   01B5           02558         clrf PP8H
0489   0828           02559         movf PBP#VAR5,W
048A   00B4           02560         movwf PP8
048B   3005           02561         movlw 5
048C   00AA           02562         movwf PP0
048D                  02563 M@LB4
048D   1003           02564         bcf STATUS,0
048E   0DB4           02565         rlf PP8,F
048F   0DB5           02566         rlf PP8H,F
0490   0BAA           02567         decfsz PP0,F
0491   2C8D           02568         goto M@LB4
0492   0834           02569         movf PP8,W
0493   07B2           02570         addwf PP7,F
0494   0835           02571         movf PP8H,W
0495   1803           02572         btfsc STATUS,0
0496   3E01           02573         addlw 1
0497   07B3           02574         addwf PP7H,F
0498   1683           02575         bsf STATUS,5
  00000001            02576 ram_bank = 1
0499   0850           02577         movf Segments#6,W
049A   1283           02578         bcf STATUS,5
  00000000            02579 ram_bank = 0
049B   00A9           02580         movwf PBP#VAR6
049C   01B5           02581         clrf PP8H
049D   0829           02582         movf PBP#VAR6,W
049E   00B4           02583         movwf PP8
049F   3006           02584         movlw 6
04A0   00AA           02585         movwf PP0
04A1                  02586 M@LB5
04A1   1003           02587         bcf STATUS,0
04A2   0DB4           02588         rlf PP8,F
04A3   0DB5           02589         rlf PP8H,F
04A4   0BAA           02590         decfsz PP0,F
04A5   2CA1           02591         goto M@LB5
04A6   0832           02592         movf PP7,W
04A7   0734           02593         addwf PP8,W
04A8   1683           02594         bsf STATUS,5
  00000001            02595 ram_bank = 1
04A9   00D1           02596         movwf DecValue
  000004AA            02597 F1_000414 equ $ ; IN [RACAL_BC39B_I2C_LCD_PIC16F628.BAS] ResValue = "-"
04AA   302D           02598         movlw 45
04AB   00D2           02599         movwf ResValue
  000004AC            02600 F1_000415 equ $ ; IN [RACAL_BC39B_I2C_LCD_PIC16F628.BAS] if DecValue = 0   THEN ResValue = " "
04AC   08D1           02601         movf DecValue,F
04AD   1283           02602         bcf STATUS,5
  00000000            02603 ram_bank = 0
04AE   1D03           02604         btfss STATUS,2
04AF   2CB3           02605         goto BC@LL46
04B0   3020           02606         movlw 32
04B1   1683           02607         bsf STATUS,5
  00000001            02608 ram_bank = 1
04B2   00D2           02609         movwf ResValue
04B3                  02610 BC@LL46
04B3   1283           02611         bcf STATUS,5
  00000000            02612 ram_bank = 0
  000004B4            02613 F1_000416 equ $ ; IN [RACAL_BC39B_I2C_LCD_PIC16F628.BAS] if DecValue = 63  THEN ResValue = "0"
04B4   303F           02614         movlw 63
04B5   1683           02615         bsf STATUS,5
  00000001            02616 ram_bank = 1
04B6   0251           02617         subwf DecValue,W
04B7   1283           02618         bcf STATUS,5
  00000000            02619 ram_bank = 0
04B8   1D03           02620         btfss STATUS,2
04B9   2CBD           02621         goto BC@LL48
04BA   3030           02622         movlw 48
04BB   1683           02623         bsf STATUS,5
  00000001            02624 ram_bank = 1
04BC   00D2           02625         movwf ResValue
04BD                  02626 BC@LL48
04BD   1283           02627         bcf STATUS,5
  00000000            02628 ram_bank = 0
  000004BE            02629 F1_000417 equ $ ; IN [RACAL_BC39B_I2C_LCD_PIC16F628.BAS] if DecValue = 6   THEN ResValue = "1"
04BE   3006           02630         movlw 6
04BF   1683           02631         bsf STATUS,5
  00000001            02632 ram_bank = 1
04C0   0251           02633         subwf DecValue,W
04C1   1283           02634         bcf STATUS,5
  00000000            02635 ram_bank = 0
04C2   1D03           02636         btfss STATUS,2
04C3   2CC7           02637         goto BC@LL50
04C4   3031           02638         movlw 49
04C5   1683           02639         bsf STATUS,5
  00000001            02640 ram_bank = 1
04C6   00D2           02641         movwf ResValue
04C7                  02642 BC@LL50
04C7   1283           02643         bcf STATUS,5
  00000000            02644 ram_bank = 0
  000004C8            02645 F1_000418 equ $ ; IN [RACAL_BC39B_I2C_LCD_PIC16F628.BAS] if DecValue = 91  THEN ResValue = "2"
04C8   305B           02646         movlw 91
04C9   1683           02647         bsf STATUS,5
  00000001            02648 ram_bank = 1
04CA   0251           02649         subwf DecValue,W
04CB   1283           02650         bcf STATUS,5
  00000000            02651 ram_bank = 0
04CC   1D03           02652         btfss STATUS,2
04CD   2CD1           02653         goto BC@LL52
04CE   3032           02654         movlw 50
04CF   1683           02655         bsf STATUS,5
  00000001            02656 ram_bank = 1
04D0   00D2           02657         movwf ResValue
04D1                  02658 BC@LL52
04D1   1283           02659         bcf STATUS,5
  00000000            02660 ram_bank = 0
  000004D2            02661 F1_000419 equ $ ; IN [RACAL_BC39B_I2C_LCD_PIC16F628.BAS] if DecValue = 79  THEN ResValue = "3"
04D2   304F           02662         movlw 79
04D3   1683           02663         bsf STATUS,5
  00000001            02664 ram_bank = 1
04D4   0251           02665         subwf DecValue,W
04D5   1283           02666         bcf STATUS,5
  00000000            02667 ram_bank = 0
04D6   1D03           02668         btfss STATUS,2
04D7   2CDB           02669         goto BC@LL54
04D8   3033           02670         movlw 51
04D9   1683           02671         bsf STATUS,5
  00000001            02672 ram_bank = 1
04DA   00D2           02673         movwf ResValue
04DB                  02674 BC@LL54
04DB   1283           02675         bcf STATUS,5
  00000000            02676 ram_bank = 0
  000004DC            02677 F1_000420 equ $ ; IN [RACAL_BC39B_I2C_LCD_PIC16F628.BAS] if DecValue = 102 THEN ResValue = "4"
04DC   3066           02678         movlw 102
04DD   1683           02679         bsf STATUS,5
  00000001            02680 ram_bank = 1
04DE   0251           02681         subwf DecValue,W
04DF   1283           02682         bcf STATUS,5
  00000000            02683 ram_bank = 0
04E0   1D03           02684         btfss STATUS,2
04E1   2CE5           02685         goto BC@LL56
04E2   3034           02686         movlw 52
04E3   1683           02687         bsf STATUS,5
  00000001            02688 ram_bank = 1
04E4   00D2           02689         movwf ResValue
04E5                  02690 BC@LL56
04E5   1283           02691         bcf STATUS,5
  00000000            02692 ram_bank = 0
  000004E6            02693 F1_000421 equ $ ; IN [RACAL_BC39B_I2C_LCD_PIC16F628.BAS] if DecValue = 109 THEN ResValue = "5"
04E6   306D           02694         movlw 109
04E7   1683           02695         bsf STATUS,5
  00000001            02696 ram_bank = 1
04E8   0251           02697         subwf DecValue,W
04E9   1283           02698         bcf STATUS,5
  00000000            02699 ram_bank = 0
04EA   1D03           02700         btfss STATUS,2
04EB   2CEF           02701         goto BC@LL58
04EC   3035           02702         movlw 53
04ED   1683           02703         bsf STATUS,5
  00000001            02704 ram_bank = 1
04EE   00D2           02705         movwf ResValue
04EF                  02706 BC@LL58
04EF   1283           02707         bcf STATUS,5
  00000000            02708 ram_bank = 0
  000004F0            02709 F1_000422 equ $ ; IN [RACAL_BC39B_I2C_LCD_PIC16F628.BAS] if DecValue = 125 THEN ResValue = "6"
04F0   307D           02710         movlw 125
04F1   1683           02711         bsf STATUS,5
  00000001            02712 ram_bank = 1
04F2   0251           02713         subwf DecValue,W
04F3   1283           02714         bcf STATUS,5
  00000000            02715 ram_bank = 0
04F4   1D03           02716         btfss STATUS,2
04F5   2CF9           02717         goto BC@LL60
04F6   3036           02718         movlw 54
04F7   1683           02719         bsf STATUS,5
  00000001            02720 ram_bank = 1
04F8   00D2           02721         movwf ResValue
04F9                  02722 BC@LL60
04F9   1283           02723         bcf STATUS,5
  00000000            02724 ram_bank = 0
  000004FA            02725 F1_000423 equ $ ; IN [RACAL_BC39B_I2C_LCD_PIC16F628.BAS] if DecValue = 7   THEN ResValue = "7"
04FA   3007           02726         movlw 7
04FB   1683           02727         bsf STATUS,5
  00000001            02728 ram_bank = 1
04FC   0251           02729         subwf DecValue,W
04FD   1283           02730         bcf STATUS,5
  00000000            02731 ram_bank = 0
04FE   1D03           02732         btfss STATUS,2
04FF   2D03           02733         goto BC@LL62
0500   3037           02734         movlw 55
0501   1683           02735         bsf STATUS,5
  00000001            02736 ram_bank = 1
0502   00D2           02737         movwf ResValue
0503                  02738 BC@LL62
0503   1283           02739         bcf STATUS,5
  00000000            02740 ram_bank = 0
  00000504            02741 F1_000424 equ $ ; IN [RACAL_BC39B_I2C_LCD_PIC16F628.BAS] if DecValue = 127 THEN ResValue = "8"
0504   307F           02742         movlw 127
0505   1683           02743         bsf STATUS,5
  00000001            02744 ram_bank = 1
0506   0251           02745         subwf DecValue,W
0507   1283           02746         bcf STATUS,5
  00000000            02747 ram_bank = 0
0508   1D03           02748         btfss STATUS,2
0509   2D0D           02749         goto BC@LL64
050A   3038           02750         movlw 56
050B   1683           02751         bsf STATUS,5
  00000001            02752 ram_bank = 1
050C   00D2           02753         movwf ResValue
050D                  02754 BC@LL64
050D   1283           02755         bcf STATUS,5
  00000000            02756 ram_bank = 0
  0000050E            02757 F1_000425 equ $ ; IN [RACAL_BC39B_I2C_LCD_PIC16F628.BAS] if DecValue = 111 THEN ResValue = "9"
050E   306F           02758         movlw 111
050F   1683           02759         bsf STATUS,5
  00000001            02760 ram_bank = 1
0510   0251           02761         subwf DecValue,W
0511   1283           02762         bcf STATUS,5
  00000000            02763 ram_bank = 0
0512   1D03           02764         btfss STATUS,2
0513   2D17           02765         goto BC@LL66
0514   3039           02766         movlw 57
0515   1683           02767         bsf STATUS,5
  00000001            02768 ram_bank = 1
0516   00D2           02769         movwf ResValue
0517                  02770 BC@LL66
0517   1283           02771         bcf STATUS,5
  00000000            02772 ram_bank = 0
  00000518            02773 F1_000426 equ $ ; IN [RACAL_BC39B_I2C_LCD_PIC16F628.BAS] if DecValue = 120 THEN ResValue = "T"
0518   3078           02774         movlw 120
0519   1683           02775         bsf STATUS,5
  00000001            02776 ram_bank = 1
051A   0251           02777         subwf DecValue,W
051B   1283           02778         bcf STATUS,5
  00000000            02779 ram_bank = 0
051C   1D03           02780         btfss STATUS,2
051D   2D21           02781         goto BC@LL68
051E   3074           02782         movlw 116
051F   1683           02783         bsf STATUS,5
  00000001            02784 ram_bank = 1
0520   00D2           02785         movwf ResValue
0521                  02786 BC@LL68
0521   1283           02787         bcf STATUS,5
  00000000            02788 ram_bank = 0
  00000522            02789 F1_000427 equ $ ; IN [RACAL_BC39B_I2C_LCD_PIC16F628.BAS] if DecValue = 28  THEN ResValue = "U"
0522   301C           02790         movlw 28
0523   1683           02791         bsf STATUS,5
  00000001            02792 ram_bank = 1
0524   0251           02793         subwf DecValue,W
0525   1283           02794         bcf STATUS,5
  00000000            02795 ram_bank = 0
0526   1D03           02796         btfss STATUS,2
0527   2D2B           02797         goto BC@LL70
0528   3055           02798         movlw 85
0529   1683           02799         bsf STATUS,5
  00000001            02800 ram_bank = 1
052A   00D2           02801         movwf ResValue
052B                  02802 BC@LL70
052B   1283           02803         bcf STATUS,5
  00000000            02804 ram_bank = 0
  0000052C            02805 F1_000428 equ $ ; IN [RACAL_BC39B_I2C_LCD_PIC16F628.BAS] if DecValue = 84  THEN ResValue = "N"
052C   3054           02806         movlw 84
052D   1683           02807         bsf STATUS,5
  00000001            02808 ram_bank = 1
052E   0251           02809         subwf DecValue,W
052F   1283           02810         bcf STATUS,5
  00000000            02811 ram_bank = 0
0530   1D03           02812         btfss STATUS,2
0531   2D35           02813         goto BC@LL72
0532   306E           02814         movlw 110
0533   1683           02815         bsf STATUS,5
  00000001            02816 ram_bank = 1
0534   00D2           02817         movwf ResValue
0535                  02818 BC@LL72
0535   1283           02819         bcf STATUS,5
  00000000            02820 ram_bank = 0
  00000536            02821 F1_000429 equ $ ; IN [RACAL_BC39B_I2C_LCD_PIC16F628.BAS] if DecValue = 88  THEN ResValue = "E"
0536   3058           02822         movlw 88
0537   1683           02823         bsf STATUS,5
  00000001            02824 ram_bank = 1
0538   0251           02825         subwf DecValue,W
0539   1283           02826         bcf STATUS,5
  00000000            02827 ram_bank = 0
053A   1D03           02828         btfss STATUS,2
053B   2D3F           02829         goto BC@LL74
053C   3065           02830         movlw 101
053D   1683           02831         bsf STATUS,5
  00000001            02832 ram_bank = 1
053E   00D2           02833         movwf ResValue
053F                  02834 BC@LL74
053F   1283           02835         bcf STATUS,5
  00000000            02836 ram_bank = 0
  00000540            02837 F1_000445 equ $ ; IN [RACAL_BC39B_I2C_LCD_PIC16F628.BAS] return
0540   0008           02838         return
0541                  02839 KomutGonder
  00000541            02840 F1_000450 equ $ ; IN [RACAL_BC39B_I2C_LCD_PIC16F628.BAS] low SDA
0541   1683           02841         bsf STATUS,5
  00000001            02842 ram_bank = 1
0542   1205           02843         bcf TRISA,4
0543   1283           02844         bcf STATUS,5
  00000000            02845 ram_bank = 0
0544   1205           02846         bcf PORTA,4
  00000545            02847 F1_000451 equ $ ; IN [RACAL_BC39B_I2C_LCD_PIC16F628.BAS] DELAYUS 10
0545   3003           02848         movlw 3
0546   00AA           02849         movwf PP0
0547   0BAA           02850         decfsz PP0,F
0548   2D47           02851         goto $ - 1
0549   0000           02852         nop
  0000054A            02853 F1_000452 equ $ ; IN [RACAL_BC39B_I2C_LCD_PIC16F628.BAS] low SCL
054A   1683           02854         bsf STATUS,5
  00000001            02855 ram_bank = 1
054B   1185           02856         bcf TRISA,3
054C   1283           02857         bcf STATUS,5
  00000000            02858 ram_bank = 0
054D   1185           02859         bcf PORTA,3
  0000054E            02860 F1_000453 equ $ ; IN [RACAL_BC39B_I2C_LCD_PIC16F628.BAS] DELAYUS 10
054E   3003           02861         movlw 3
054F   00AA           02862         movwf PP0
0550   0BAA           02863         decfsz PP0,F
0551   2D50           02864         goto $ - 1
0552   0000           02865         nop
  00000553            02866 F1_000454 equ $ ; IN [RACAL_BC39B_I2C_LCD_PIC16F628.BAS] DATAm = $78
0553   3078           02867         movlw 120
0554   1683           02868         bsf STATUS,5
  00000001            02869 ram_bank = 1
0555   00DD           02870         movwf DATAm
  00000556            02871 F1_000455 equ $ ; IN [RACAL_BC39B_I2C_LCD_PIC16F628.BAS] GOSUB Gonder
0556   1283           02872         bcf STATUS,5
  00000000            02873 ram_bank = 0
0557   2597           02874         call Gonder
  00000558            02875 F1_000456 equ $ ; IN [RACAL_BC39B_I2C_LCD_PIC16F628.BAS] DATAm = $80
0558   3080           02876         movlw 128
0559   1683           02877         bsf STATUS,5
  00000001            02878 ram_bank = 1
055A   00DD           02879         movwf DATAm
  0000055B            02880 F1_000457 equ $ ; IN [RACAL_BC39B_I2C_LCD_PIC16F628.BAS] GOSUB Gonder
055B   1283           02881         bcf STATUS,5
  00000000            02882 ram_bank = 0
055C   2597           02883         call Gonder
  0000055D            02884 F1_000458 equ $ ; IN [RACAL_BC39B_I2C_LCD_PIC16F628.BAS] DATAm = Cmd
055D   1683           02885         bsf STATUS,5
  00000001            02886 ram_bank = 1
055E   085B           02887         movf Cmd,W
055F   00DD           02888         movwf DATAm
  00000560            02889 F1_000459 equ $ ; IN [RACAL_BC39B_I2C_LCD_PIC16F628.BAS] GOSUB Gonder
0560   1283           02890         bcf STATUS,5
  00000000            02891 ram_bank = 0
0561   2597           02892         call Gonder
  00000562            02893 F1_000461 equ $ ; IN [RACAL_BC39B_I2C_LCD_PIC16F628.BAS] high SCL
0562   1683           02894         bsf STATUS,5
  00000001            02895 ram_bank = 1
0563   1185           02896         bcf TRISA,3
0564   1283           02897         bcf STATUS,5
  00000000            02898 ram_bank = 0
0565   1585           02899         bsf PORTA,3
  00000566            02900 F1_000462 equ $ ; IN [RACAL_BC39B_I2C_LCD_PIC16F628.BAS] DELAYUS 1
0566   0000           02901         nop
  00000567            02902 F1_000463 equ $ ; IN [RACAL_BC39B_I2C_LCD_PIC16F628.BAS] high SDA
0567   1683           02903         bsf STATUS,5
  00000001            02904 ram_bank = 1
0568   1205           02905         bcf TRISA,4
0569   1283           02906         bcf STATUS,5
  00000000            02907 ram_bank = 0
056A   1605           02908         bsf PORTA,4
  0000056B            02909 F1_000465 equ $ ; IN [RACAL_BC39B_I2C_LCD_PIC16F628.BAS] return
056B   0008           02910         return
056C                  02911 DataGonder
  0000056C            02912 F1_000469 equ $ ; IN [RACAL_BC39B_I2C_LCD_PIC16F628.BAS] low SDA
056C   1683           02913         bsf STATUS,5
  00000001            02914 ram_bank = 1
056D   1205           02915         bcf TRISA,4
056E   1283           02916         bcf STATUS,5
  00000000            02917 ram_bank = 0
056F   1205           02918         bcf PORTA,4
  00000570            02919 F1_000470 equ $ ; IN [RACAL_BC39B_I2C_LCD_PIC16F628.BAS] DELAYUS 10
0570   3003           02920         movlw 3
0571   00AA           02921         movwf PP0
0572   0BAA           02922         decfsz PP0,F
0573   2D72           02923         goto $ - 1
0574   0000           02924         nop
  00000575            02925 F1_000471 equ $ ; IN [RACAL_BC39B_I2C_LCD_PIC16F628.BAS] low SCL
0575   1683           02926         bsf STATUS,5
  00000001            02927 ram_bank = 1
0576   1185           02928         bcf TRISA,3
0577   1283           02929         bcf STATUS,5
  00000000            02930 ram_bank = 0
0578   1185           02931         bcf PORTA,3
  00000579            02932 F1_000472 equ $ ; IN [RACAL_BC39B_I2C_LCD_PIC16F628.BAS] DELAYUS 10
0579   3003           02933         movlw 3
057A   00AA           02934         movwf PP0
057B   0BAA           02935         decfsz PP0,F
057C   2D7B           02936         goto $ - 1
057D   0000           02937         nop
  0000057E            02938 F1_000474 equ $ ; IN [RACAL_BC39B_I2C_LCD_PIC16F628.BAS] DATAm = $78
057E   3078           02939         movlw 120
057F   1683           02940         bsf STATUS,5
  00000001            02941 ram_bank = 1
0580   00DD           02942         movwf DATAm
  00000581            02943 F1_000475 equ $ ; IN [RACAL_BC39B_I2C_LCD_PIC16F628.BAS] GOSUB Gonder
0581   1283           02944         bcf STATUS,5
  00000000            02945 ram_bank = 0
0582   2597           02946         call Gonder
  00000583            02947 F1_000476 equ $ ; IN [RACAL_BC39B_I2C_LCD_PIC16F628.BAS] DATAm = $40
0583   3040           02948         movlw 64
0584   1683           02949         bsf STATUS,5
  00000001            02950 ram_bank = 1
0585   00DD           02951         movwf DATAm
  00000586            02952 F1_000477 equ $ ; IN [RACAL_BC39B_I2C_LCD_PIC16F628.BAS] GOSUB Gonder
0586   1283           02953         bcf STATUS,5
  00000000            02954 ram_bank = 0
0587   2597           02955         call Gonder
  00000588            02956 F1_000478 equ $ ; IN [RACAL_BC39B_I2C_LCD_PIC16F628.BAS] DATAm = LcdData
0588   1683           02957         bsf STATUS,5
  00000001            02958 ram_bank = 1
0589   085C           02959         movf LcdData,W
058A   00DD           02960         movwf DATAm
  0000058B            02961 F1_000479 equ $ ; IN [RACAL_BC39B_I2C_LCD_PIC16F628.BAS] GOSUB Gonder
058B   1283           02962         bcf STATUS,5
  00000000            02963 ram_bank = 0
058C   2597           02964         call Gonder
  0000058D            02965 F1_000482 equ $ ; IN [RACAL_BC39B_I2C_LCD_PIC16F628.BAS] high SCL
058D   1683           02966         bsf STATUS,5
  00000001            02967 ram_bank = 1
058E   1185           02968         bcf TRISA,3
058F   1283           02969         bcf STATUS,5
  00000000            02970 ram_bank = 0
0590   1585           02971         bsf PORTA,3
  00000591            02972 F1_000483 equ $ ; IN [RACAL_BC39B_I2C_LCD_PIC16F628.BAS] DELAYUS 1
0591   0000           02973         nop
  00000592            02974 F1_000484 equ $ ; IN [RACAL_BC39B_I2C_LCD_PIC16F628.BAS] high SDA
0592   1683           02975         bsf STATUS,5
  00000001            02976 ram_bank = 1
0593   1205           02977         bcf TRISA,4
0594   1283           02978         bcf STATUS,5
  00000000            02979 ram_bank = 0
0595   1605           02980         bsf PORTA,4
  00000596            02981 F1_000486 equ $ ; IN [RACAL_BC39B_I2C_LCD_PIC16F628.BAS] return
0596   0008           02982         return
0597                  02983 Gonder
  00000597            02984 F1_000493 equ $ ; IN [RACAL_BC39B_I2C_LCD_PIC16F628.BAS] FOR don = 1 TO 8
0597   3001           02985         movlw 1
0598   1683           02986         bsf STATUS,5
  00000001            02987 ram_bank = 1
0599   00DE           02988         movwf don
059A                  02989 FR@LB75
059A   1283           02990         bcf STATUS,5
  00000000            02991 ram_bank = 0
059B   3009           02992         movlw 9
059C   1683           02993         bsf STATUS,5
  00000001            02994 ram_bank = 1
059D   025E           02995         subwf don,W
059E   1283           02996         bcf STATUS,5
  00000000            02997 ram_bank = 0
059F   1803           02998         btfsc STATUS,0
05A0   2DC5           02999         goto NX@LB76
  000005A1            03000 F1_000494 equ $ ; IN [RACAL_BC39B_I2C_LCD_PIC16F628.BAS] if DATAm.7 = 0 THEN
                      03001         set@page BC@LL79
05A1   1683           03002         bsf STATUS,5
  00000001            03003 ram_bank = 1
05A2   0D5D           03004         rlf DATAm,W
05A3   1283           03005         bcf STATUS,5
  00000000            03006 ram_bank = 0
05A4   1803           03007         btfsc STATUS,0
05A5   2DAB           03008         goto BC@LL79
  000005A6            03009 F1_000495 equ $ ; IN [RACAL_BC39B_I2C_LCD_PIC16F628.BAS] low SDA
05A6   1683           03010         bsf STATUS,5
  00000001            03011 ram_bank = 1
05A7   1205           03012         bcf TRISA,4
05A8   1283           03013         bcf STATUS,5
  00000000            03014 ram_bank = 0
05A9   1205           03015         bcf PORTA,4
05AA   2DAF           03016         goto BC@LL80
05AB                  03017 BC@LL79
  000005AB            03018 F1_000496 equ $ ; IN [RACAL_BC39B_I2C_LCD_PIC16F628.BAS] else
  000005AB            03019 F1_000497 equ $ ; IN [RACAL_BC39B_I2C_LCD_PIC16F628.BAS] high SDA
05AB   1683           03020         bsf STATUS,5
  00000001            03021 ram_bank = 1
05AC   1205           03022         bcf TRISA,4
05AD   1283           03023         bcf STATUS,5
  00000000            03024 ram_bank = 0
05AE   1605           03025         bsf PORTA,4
  000005AF            03026 F1_000498 equ $ ; IN [RACAL_BC39B_I2C_LCD_PIC16F628.BAS] endif
05AF                  03027 BC@LL80
  000005AF            03028 F1_000499 equ $ ; IN [RACAL_BC39B_I2C_LCD_PIC16F628.BAS] DATAm = DATAm << 1
05AF   1003           03029         bcf STATUS,0
05B0   1683           03030         bsf STATUS,5
  00000001            03031 ram_bank = 1
05B1   0DDD           03032         rlf DATAm,F
  000005B2            03033 F1_000500 equ $ ; IN [RACAL_BC39B_I2C_LCD_PIC16F628.BAS] DELAYUS 1
05B2   0000           03034         nop
  000005B3            03035 F1_000501 equ $ ; IN [RACAL_BC39B_I2C_LCD_PIC16F628.BAS] high SCL
05B3   1185           03036         bcf TRISA,3
05B4   1283           03037         bcf STATUS,5
  00000000            03038 ram_bank = 0
05B5   1585           03039         bsf PORTA,3
  000005B6            03040 F1_000502 equ $ ; IN [RACAL_BC39B_I2C_LCD_PIC16F628.BAS] DELAYUS 9
05B6   3002           03041         movlw 2
05B7   00AA           03042         movwf PP0
05B8   0BAA           03043         decfsz PP0,F
05B9   2DB8           03044         goto $ - 1
05BA   2DBB           03045         goto $ + 1
  000005BB            03046 F1_000503 equ $ ; IN [RACAL_BC39B_I2C_LCD_PIC16F628.BAS] low SCL
05BB   1683           03047         bsf STATUS,5
  00000001            03048 ram_bank = 1
05BC   1185           03049         bcf TRISA,3
05BD   1283           03050         bcf STATUS,5
  00000000            03051 ram_bank = 0
05BE   1185           03052         bcf PORTA,3
05BF                  03053 CT@LB77
  000005BF            03054 F1_000504 equ $ ; IN [RACAL_BC39B_I2C_LCD_PIC16F628.BAS] NEXT don
05BF   3001           03055         movlw 1
05C0   1683           03056         bsf STATUS,5
  00000001            03057 ram_bank = 1
05C1   07DE           03058         addwf don,F
05C2   1283           03059         bcf STATUS,5
  00000000            03060 ram_bank = 0
05C3   1C03           03061         btfss STATUS,0
05C4   2D9A           03062         goto FR@LB75
05C5                  03063 NX@LB76
  000005C5            03064 F1_000507 equ $ ; IN [RACAL_BC39B_I2C_LCD_PIC16F628.BAS] DELAYUS 1
05C5   0000           03065         nop
  000005C6            03066 F1_000508 equ $ ; IN [RACAL_BC39B_I2C_LCD_PIC16F628.BAS] high SCL
05C6   1683           03067         bsf STATUS,5
  00000001            03068 ram_bank = 1
05C7   1185           03069         bcf TRISA,3
05C8   1283           03070         bcf STATUS,5
  00000000            03071 ram_bank = 0
05C9   1585           03072         bsf PORTA,3
  000005CA            03073 F1_000509 equ $ ; IN [RACAL_BC39B_I2C_LCD_PIC16F628.BAS] DELAYUS 9
05CA   3002           03074         movlw 2
05CB   00AA           03075         movwf PP0
05CC   0BAA           03076         decfsz PP0,F
05CD   2DCC           03077         goto $ - 1
05CE   2DCF           03078         goto $ + 1
  000005CF            03079 F1_000510 equ $ ; IN [RACAL_BC39B_I2C_LCD_PIC16F628.BAS] low SCL
05CF   1683           03080         bsf STATUS,5
  00000001            03081 ram_bank = 1
05D0   1185           03082         bcf TRISA,3
05D1   1283           03083         bcf STATUS,5
  00000000            03084 ram_bank = 0
05D2   1185           03085         bcf PORTA,3
  000005D3            03086 F1_000511 equ $ ; IN [RACAL_BC39B_I2C_LCD_PIC16F628.BAS] return
05D3   0008           03087         return
05D4                  03088 SatirGonder
  000005D4            03089 F1_000518 equ $ ; IN [RACAL_BC39B_I2C_LCD_PIC16F628.BAS] FOR say = 0 TO 15
05D4   1683           03090         bsf STATUS,5
  00000001            03091 ram_bank = 1
05D5   01C9           03092         clrf say
05D6                  03093 FR@LB81
05D6   1283           03094         bcf STATUS,5
  00000000            03095 ram_bank = 0
05D7   3010           03096         movlw 16
05D8   1683           03097         bsf STATUS,5
  00000001            03098 ram_bank = 1
05D9   0249           03099         subwf say,W
05DA   1283           03100         bcf STATUS,5
  00000000            03101 ram_bank = 0
05DB   1803           03102         btfsc STATUS,0
05DC   2DF0           03103         goto NX@LB82
  000005DD            03104 F1_000519 equ $ ; IN [RACAL_BC39B_I2C_LCD_PIC16F628.BAS] LcdData = Satir[say]
05DD   1683           03105         bsf STATUS,5
  00000001            03106 ram_bank = 1
05DE   0849           03107         movf say,W
05DF   3E3C           03108         addlw Satir
05E0   0084           03109         movwf FSR
05E1   0800           03110         movf INDF,W
05E2   00DC           03111         movwf LcdData
  000005E3            03112 F1_000520 equ $ ; IN [RACAL_BC39B_I2C_LCD_PIC16F628.BAS] GOSUB DataGonder
05E3   1283           03113         bcf STATUS,5
  00000000            03114 ram_bank = 0
05E4   256C           03115         call DataGonder
  000005E5            03116 F1_000521 equ $ ; IN [RACAL_BC39B_I2C_LCD_PIC16F628.BAS] DELAYUS 10
05E5   3003           03117         movlw 3
05E6   00AA           03118         movwf PP0
05E7   0BAA           03119         decfsz PP0,F
05E8   2DE7           03120         goto $ - 1
05E9   0000           03121         nop
05EA                  03122 CT@LB83
  000005EA            03123 F1_000522 equ $ ; IN [RACAL_BC39B_I2C_LCD_PIC16F628.BAS] NEXT say
05EA   3001           03124         movlw 1
05EB   1683           03125         bsf STATUS,5
  00000001            03126 ram_bank = 1
05EC   07C9           03127         addwf say,F
05ED   1283           03128         bcf STATUS,5
  00000000            03129 ram_bank = 0
05EE   1C03           03130         btfss STATUS,0
05EF   2DD6           03131         goto FR@LB81
05F0                  03132 NX@LB82
  000005F0            03133 F1_000524 equ $ ; IN [RACAL_BC39B_I2C_LCD_PIC16F628.BAS] return
05F0   0008           03134         return
  000005F1            03135 F1_000525 equ $ ; IN [RACAL_BC39B_I2C_LCD_PIC16F628.BAS] end
05F1                  03136 PB@LB84
05F1   2DF1           03137         goto PB@LB84
  000005F2            03138 F1_EOF equ $ ; RACAL_BC39B_I2C_LCD_PIC16F628.BAS
05F2                  03139 PB@LB85
05F2   2DF2           03140         goto PB@LB85
05F3                  03142 __EOF
2007   3F10           03143 __config INTRC_OSC_NOCLKOUT&WDT_OFF&PWRTE_ON&BODEN_OFF&LVP_OFF&CP_OFF&MCLRE_OFF&DATA_CP_OFF
                      03144         end
MPASM  5.45                               A.S   11-14-2015  15:00:58         PAGE  2


SYMBOL TABLE
  LABEL                             VALUE 

ADEN                              00000003
BANK0_END                         0X7C
BANK0_START                       0X20
BANK1_END                         0X00EF
BANK1_START                       0X00A0
BANK2_END                         0X014F
BANK2_START                       0X0120
BASLA                             000000C5
BC@LL11                           000000A4
BC@LL13                           00000369
BC@LL14                           0000036D
BC@LL16                           0000037A
BC@LL17                           0000037D
BC@LL19                           00000388
BC@LL20                           0000038A
BC@LL22                           000003C5
BC@LL23                           000003C7
BC@LL25                           000003D2
BC@LL26                           000003D4
BC@LL28                           000003DD
BC@LL29                           000003DF
BC@LL31                           000003E8
BC@LL32                           000003EA
BC@LL34                           000003F9
BC@LL35                           000003FC
BC@LL37                           0000040B
BC@LL38                           0000040E
BC@LL40                           00000419
BC@LL41                           0000041B
BC@LL43                           00000428
BC@LL44                           0000042E
BC@LL46                           000004B3
BC@LL48                           000004BD
BC@LL50                           000004C7
BC@LL52                           000004D1
BC@LL54                           000004DB
BC@LL56                           000004E5
BC@LL58                           000004EF
BC@LL6                            000000A8
BC@LL60                           000004F9
BC@LL62                           00000503
BC@LL64                           0000050D
BC@LL66                           00000517
BC@LL68                           00000521
BC@LL70                           0000052B
BC@LL72                           00000535
BC@LL74                           0000053F
BC@LL79                           000005AB
BC@LL8                            0000009F
BC@LL80                           000005AF
BC@LL9                            000000A7
BIT_BIT                           
BIT_BYTE                          
BIT_DWORD                         
BIT_WORD                          
BIT_WREG                          
BODEN_OFF                         00003FBF
BODEN_ON                          00003FFF
BOREN_OFF                         00003FBF
BOREN_ON                          00003FFF
BRGH                              00000002
BUFFER                            00000039
BYTE_BIT                          
BYTE_BYTE                         
BYTE_DWORD                        
BYTE_SDWORD                       
BYTE_SWORD                        
BYTE_WORD                         
BYTE_WREG                         
C                                 00000000
C1INV                             00000004
C1OUT                             00000006
C2INV                             00000005
C2OUT                             00000007
CALCVALUE                         00000432
CCP1CON                           00000017
CCP1IE                            00000002
CCP1IF                            00000002
CCP1M0                            00000000
CCP1M1                            00000001
CCP1M2                            00000002
CCP1M3                            00000003
CCP1X                             00000005
CCP1Y                             00000004
CCPR1H                            00000016
CCPR1L                            00000015
CCPR1LH                           00000016
CHANNEL                           000000DA
CIKIS                             000000A8
CIS                               00000003
CM0                               00000000
CM1                               00000001
CM2                               00000002
CMCON                             0000001F
CMD                               000000DB
CMIE                              00000006
CMIF                              00000006
CONFIG_REQ                        1
CPD_OFF                           00003FFF
CPD_ON                            00003EFF
CP_OFF                            00003FFF
CP_ON                             00001FFF
CREN                              00000004
CSRC                              00000007
CT@LB4                            00000072
CT@LB77                           000005BF
CT@LB83                           000005EA
CURRENT@PAGE                      00000000
DATAGONDER                        0000056C
DATAM                             000000DD
DATA_CP_OFF                       00003FFF
DATA_CP_ON                        00003EFF
DC                                00000001
DECVALUE                          000000D1
DEGERLER                          0000004C
DEGERLER#0                        0000004C
DEGERLER#1                        0000004D
DEGERLER#10                       00000056
DEGERLER#11                       00000057
DEGERLER#12                       00000058
DEGERLER#13                       00000059
DEGERLER#14                       0000005A
DEGERLER#15                       0000005B
DEGERLER#16                       0000005C
DEGERLER#17                       0000005D
DEGERLER#18                       0000005E
DEGERLER#19                       0000005F
DEGERLER#2                        0000004E
DEGERLER#20                       00000060
DEGERLER#21                       00000061
DEGERLER#22                       00000062
DEGERLER#23                       00000063
DEGERLER#24                       00000064
DEGERLER#25                       00000065
DEGERLER#26                       00000066
DEGERLER#27                       00000067
DEGERLER#28                       00000068
DEGERLER#29                       00000069
DEGERLER#3                        0000004F
DEGERLER#30                       0000006A
DEGERLER#31                       0000006B
DEGERLER#32                       0000006C
DEGERLER#33                       0000006D
DEGERLER#34                       0000006E
DEGERLER#35                       0000006F
DEGERLER#36                       00000070
DEGERLER#37                       00000071
DEGERLER#38                       00000072
DEGERLER#39                       00000073
DEGERLER#4                        00000050
DEGERLER#40                       00000074
DEGERLER#41                       00000075
DEGERLER#42                       00000076
DEGERLER#43                       00000077
DEGERLER#44                       00000078
DEGERLER#45                       00000079
DEGERLER#46                       0000007A
DEGERLER#47                       0000007B
DEGERLER#48                       0000007C
DEGERLER#49                       000000A0
DEGERLER#5                        00000051
DEGERLER#50                       000000A1
DEGERLER#51                       000000A2
DEGERLER#52                       000000A3
DEGERLER#53                       000000A4
DEGERLER#54                       000000A5
DEGERLER#55                       000000A6
DEGERLER#56                       000000A7
DEGERLER#57                       000000A8
DEGERLER#58                       000000A9
DEGERLER#59                       000000AA
DEGERLER#6                        00000052
DEGERLER#60                       000000AB
DEGERLER#61                       000000AC
DEGERLER#62                       000000AD
DEGERLER#63                       000000AE
DEGERLER#64                       000000AF
DEGERLER#65                       000000B0
DEGERLER#66                       000000B1
DEGERLER#67                       000000B2
DEGERLER#68                       000000B3
DEGERLER#69                       000000B4
DEGERLER#7                        00000053
DEGERLER#70                       000000B5
DEGERLER#71                       000000B6
DEGERLER#72                       000000B7
DEGERLER#73                       000000B8
DEGERLER#74                       000000B9
DEGERLER#75                       000000BA
DEGERLER#76                       000000BB
DEGERLER#77                       000000BC
DEGERLER#78                       000000BD
DEGERLER#79                       000000BE
DEGERLER#8                        00000054
DEGERLER#80                       000000BF
DEGERLER#81                       000000C0
DEGERLER#82                       000000C1
DEGERLER#83                       000000C2
DEGERLER#84                       000000C3
DEGERLER#85                       000000C4
DEGERLER#86                       000000C5
DEGERLER#87                       000000C6
DEGERLER#88                       000000C7
DEGERLER#89                       000000C8
DEGERLER#9                        00000055
DEST@PAGE                         00000000
DLY@P                             0000002B
DON                               000000DE
DONGU                             00000209
DWORD_BIT                         
DWORD_BYTE                        
DWORD_DWORD                       
DWORD_WORD                        
DWORD_WREG                        
EEADR                             0000009B
EECON1                            0000009C
EECON2                            0000009D
EEDAT                             0000009A
EEDATA                            0000009A
EEDATL                            0000009A
EEIE                              00000007
EEIF                              00000007
ENUZUN                            0000003B
ER_OSC_CLKOUT                     00003FFF
ER_OSC_NOCLKOUT                   00003FFE
EXTCLK_OSC                        00003FEF
F1_000020                         00000058
F1_000026                         0000005A
F1_000027                         0000005D
F1_000041                         0000005E
F1_000048                         0000005F
F1_000053                         00000061
F1_000054                         0000006A
F1_000055                         00000072
F1_000057                         00000078
F1_000058                         0000007A
F1_000061                         0000007B
F1_000065                         0000007C
F1_000066                         00000090
F1_000068                         00000091
F1_000070                         00000093
F1_000072                         00000095
F1_000073                         0000009D
F1_000074                         0000009F
F1_000075                         0000009F
F1_000076                         000000A4
F1_000077                         000000A7
F1_000078                         000000A7
F1_000079                         000000A8
F1_000083                         000000A8
F1_000084                         000000A9
F1_000085                         000000C4
F1_000092                         000000C5
F1_000094                         000000C6
F1_000099                         000000C7
F1_000107                         000000CA
F1_000108                         000000CD
F1_000109                         000000CF
F1_000110                         000000D1
F1_000111                         000000D4
F1_000112                         000000D6
F1_000113                         000000D8
F1_000114                         000000DB
F1_000115                         000000DD
F1_000116                         000000DF
F1_000117                         000000E2
F1_000118                         000000E4
F1_000119                         000000E6
F1_000120                         000000E9
F1_000121                         000000EB
F1_000122                         000000ED
F1_000123                         000000F0
F1_000124                         000000F2
F1_000125                         000000F4
F1_000126                         000000F7
F1_000127                         000000F9
F1_000128                         000000FB
F1_000129                         000000FE
F1_000130                         00000100
F1_000131                         00000102
F1_000132                         00000105
F1_000133                         00000107
F1_000134                         00000109
F1_000135                         0000010C
F1_000136                         0000010E
F1_000137                         00000110
F1_000138                         00000113
F1_000139                         00000115
F1_000140                         00000117
F1_000141                         0000011A
F1_000142                         0000011C
F1_000144                         0000011E
F1_000145                         00000121
F1_000146                         00000123
F1_000147                         00000125
F1_000148                         00000128
F1_000149                         0000012A
F1_000151                         0000012C
F1_000152                         0000012F
F1_000153                         00000131
F1_000154                         00000133
F1_000155                         00000135
F1_000156                         00000137
F1_000157                         00000139
F1_000158                         0000013C
F1_000159                         0000013E
F1_000160                         00000140
F1_000161                         00000143
F1_000162                         00000145
F1_000163                         00000147
F1_000164                         0000014A
F1_000165                         0000014C
F1_000166                         0000014E
F1_000167                         00000151
F1_000168                         00000153
F1_000169                         00000155
F1_000170                         00000158
F1_000171                         0000015A
F1_000172                         0000015C
F1_000173                         0000015F
F1_000174                         00000161
F1_000175                         00000163
F1_000176                         00000166
F1_000177                         00000168
F1_000178                         0000016A
F1_000179                         0000016D
F1_000180                         0000016F
F1_000181                         00000171
F1_000182                         00000174
F1_000183                         00000176
F1_000184                         00000178
F1_000185                         0000017B
F1_000186                         0000017D
F1_000187                         0000017F
F1_000189                         00000182
F1_000190                         00000184
F1_000191                         00000186
F1_000192                         00000189
F1_000193                         0000018B
F1_000194                         0000018D
F1_000195                         00000190
F1_000196                         00000192
F1_000197                         00000194
F1_000198                         00000197
F1_000199                         00000199
F1_000200                         0000019B
F1_000201                         0000019E
F1_000202                         000001A0
F1_000203                         000001A2
F1_000204                         000001A5
F1_000205                         000001A7
F1_000206                         000001A9
F1_000207                         000001AC
F1_000210                         000001AE
F1_000211                         000001B0
F1_000212                         000001B3
F1_000213                         000001B5
F1_000214                         000001D2
F1_000215                         000001D3
F1_000216                         000001D6
F1_000217                         000001D8
F1_000218                         000001F8
F1_000219                         000001F9
F1_000220                         000001FD
F1_000221                         00000201
F1_000222                         00000205
F1_000227                         00000209
F1_000229                         0000020D
F1_000230                         00000213
F1_000231                         00000219
F1_000232                         0000021F
F1_000233                         00000225
F1_000234                         0000022B
F1_000235                         00000231
F1_000236                         00000237
F1_000237                         00000239
F1_000241                         0000023C
F1_000242                         00000242
F1_000243                         00000248
F1_000244                         0000024E
F1_000245                         00000254
F1_000246                         0000025A
F1_000247                         00000260
F1_000248                         00000266
F1_000249                         00000268
F1_000253                         0000026B
F1_000254                         00000271
F1_000255                         00000277
F1_000256                         0000027D
F1_000257                         00000283
F1_000258                         00000289
F1_000259                         0000028F
F1_000260                         00000295
F1_000261                         00000297
F1_000265                         0000029A
F1_000266                         000002A0
F1_000267                         000002A6
F1_000268                         000002AC
F1_000269                         000002B2
F1_000270                         000002B8
F1_000271                         000002BE
F1_000272                         000002C4
F1_000273                         000002C6
F1_000276                         000002C9
F1_000277                         000002CF
F1_000278                         000002D5
F1_000279                         000002DB
F1_000280                         000002E1
F1_000281                         000002E7
F1_000282                         000002ED
F1_000283                         000002F3
F1_000284                         000002F5
F1_000287                         000002F8
F1_000288                         000002FE
F1_000289                         00000304
F1_000290                         0000030A
F1_000291                         00000310
F1_000292                         00000316
F1_000293                         0000031C
F1_000294                         00000322
F1_000295                         00000324
F1_000298                         00000327
F1_000299                         0000032D
F1_000300                         00000333
F1_000301                         00000339
F1_000302                         0000033F
F1_000303                         00000345
F1_000304                         0000034B
F1_000305                         00000351
F1_000306                         00000353
F1_000308                         00000356
F1_000309                         00000358
F1_000311                         0000035A
F1_000312                         00000360
F1_000313                         00000362
F1_000314                         00000364
F1_000315                         00000369
F1_000316                         00000369
F1_000317                         0000036B
F1_000318                         0000036C
F1_000319                         0000036D
F1_000320                         0000036D
F1_000321                         0000036F
F1_000322                         00000375
F1_000323                         00000377
F1_000324                         0000037A
F1_000325                         0000037A
F1_000326                         0000037C
F1_000327                         0000037D
F1_000328                         0000037D
F1_000329                         0000037F
F1_000330                         00000385
F1_000331                         00000388
F1_000332                         00000388
F1_000333                         0000038A
F1_000334                         0000038A
F1_000335                         0000038C
F1_000336                         00000392
F1_000337                         00000398
F1_000338                         0000039A
F1_000339                         000003A0
F1_000340                         000003A6
F1_000341                         000003AC
F1_000342                         000003B2
F1_000343                         000003B3
F1_000345                         000003B5
F1_000346                         000003B8
F1_000347                         000003BA
F1_000348                         000003C2
F1_000349                         000003C5
F1_000350                         000003C5
F1_000351                         000003C7
F1_000352                         000003C7
F1_000353                         000003CF
F1_000354                         000003D2
F1_000355                         000003D2
F1_000356                         000003D4
F1_000357                         000003D4
F1_000358                         000003DA
F1_000359                         000003DD
F1_000360                         000003DD
F1_000361                         000003DF
F1_000362                         000003DF
F1_000363                         000003E5
F1_000364                         000003E8
F1_000365                         000003E8
F1_000366                         000003EA
F1_000368                         000003EA
F1_000369                         000003EC
F1_000370                         000003ED
F1_000371                         000003EE
F1_000372                         000003F4
F1_000373                         000003F6
F1_000374                         000003F9
F1_000375                         000003F9
F1_000376                         000003FB
F1_000377                         000003FC
F1_000378                         000003FC
F1_000379                         000003FE
F1_000380                         000003FF
F1_000381                         00000400
F1_000382                         00000406
F1_000383                         00000408
F1_000384                         0000040B
F1_000385                         0000040B
F1_000386                         0000040D
F1_000387                         0000040E
F1_000388                         0000040E
F1_000389                         00000410
F1_000390                         00000416
F1_000391                         00000419
F1_000392                         00000419
F1_000393                         0000041B
F1_000395                         0000041B
F1_000396                         00000421
F1_000397                         00000423
F1_000398                         00000425
F1_000399                         00000428
F1_000400                         00000428
F1_000401                         0000042A
F1_000402                         0000042C
F1_000403                         0000042E
F1_000404                         0000042E
F1_000405                         0000042F
F1_000407                         00000431
F1_000413                         00000432
F1_000414                         000004AA
F1_000415                         000004AC
F1_000416                         000004B4
F1_000417                         000004BE
F1_000418                         000004C8
F1_000419                         000004D2
F1_000420                         000004DC
F1_000421                         000004E6
F1_000422                         000004F0
F1_000423                         000004FA
F1_000424                         00000504
F1_000425                         0000050E
F1_000426                         00000518
F1_000427                         00000522
F1_000428                         0000052C
F1_000429                         00000536
F1_000445                         00000540
F1_000450                         00000541
F1_000451                         00000545
F1_000452                         0000054A
F1_000453                         0000054E
F1_000454                         00000553
F1_000455                         00000556
F1_000456                         00000558
F1_000457                         0000055B
F1_000458                         0000055D
F1_000459                         00000560
F1_000461                         00000562
F1_000462                         00000566
F1_000463                         00000567
F1_000465                         0000056B
F1_000469                         0000056C
F1_000470                         00000570
F1_000471                         00000575
F1_000472                         00000579
F1_000474                         0000057E
F1_000475                         00000581
F1_000476                         00000583
F1_000477                         00000586
F1_000478                         00000588
F1_000479                         0000058B
F1_000482                         0000058D
F1_000483                         00000591
F1_000484                         00000592
F1_000486                         00000596
F1_000493                         00000597
F1_000494                         000005A1
F1_000495                         000005A6
F1_000496                         000005AB
F1_000497                         000005AB
F1_000498                         000005AF
F1_000499                         000005AF
F1_000500                         000005B2
F1_000501                         000005B3
F1_000502                         000005B6
F1_000503                         000005BB
F1_000504                         000005BF
F1_000507                         000005C5
F1_000508                         000005C6
F1_000509                         000005CA
F1_000510                         000005CF
F1_000511                         000005D3
F1_000518                         000005D4
F1_000519                         000005DD
F1_000520                         000005E3
F1_000521                         000005E5
F1_000522                         000005EA
F1_000524                         000005F0
F1_000525                         000005F1
F1_EOF                            000005F2
F1_SOF                            00000058
F2_EOF                            00000058
F2_SOF                            00000058
F@CALL                            
F@JUMP                            
FA@EXT                            00000026
FERR                              00000002
FIND@ADDRESS                      0000000B
FIND@PAGE                         
FOSC_ECIO                         00003FEF
FOSC_EXTRCCLK                     00003FFF
FOSC_EXTRCIO                      00003FFE
FOSC_HS                           00003FEE
FOSC_INTOSCCLK                    00003FFD
FOSC_INTOSCIO                     00003FFC
FOSC_LP                           00003FEC
FOSC_XT                           00003FED
FR@LB2                            00000063
FR@LB75                           0000059A
FR@LB81                           000005D6
FRQDIGITS                         000000D3
FRQDIGITS#0                       000000D3
FRQDIGITS#1                       000000D4
FRQDIGITS#2                       000000D5
FRQDIGITS#3                       000000D6
FRQDIGITS#4                       000000D7
FRQDIGITS#5                       000000D8
FRQDIGITS#6                       000000D9
FSR                               00000004
FSRSAVE                           0000007D
GEN3H                             00000020
GEN4                              00000021
GEN4H                             00000022
GIE                               INTCON,7
GONDER                            00000597
HS_OSC                            00003FEE
I@NT                              0000004B
INDF                              00000000
INTCON                            0000000B
INTE                              INTCON,4
INTEDG                            OPTION_REG,6
INTF                              INTCON,1
INTOSC_OSC_CLKOUT                 00003FFD
INTOSC_OSC_NOCLKOUT               00003FFC
INTRC_OSC_CLKOUT                  00003FFD
INTRC_OSC_NOCLKOUT                00003FFC
IRP                               00000007
JUMP                              
KATAR                             00000036
KATARH                            00000037
KOMUTGONDER                       00000541
LABEL_WORD                        
LCD#TYPE                          0
LCDDATA                           000000DC
LCDHAZIRLA                        000000C9
LP_OSC                            00003FEC
LVP_OFF                           00003F7F
LVP_ON                            00003FFF
M@LB2                             00000465
M@LB3                             00000479
M@LB4                             0000048D
M@LB5                             000004A1
MCLRE_OFF                         00003FDF
MCLRE_ON                          00003FFF
MYINTERRUPT                       0000007C
NOT_BO                            00000000
NOT_BOD                           00000000
NOT_BOR                           00000000
NOT_PD                            00000003
NOT_POR                           00000001
NOT_RBPU                          OPTION_REG,7
NOT_T1SYNC                        00000002
NOT_TO                            00000004
NUM16_SFR                         
NUM_BIT                           
NUM_BYTE                          
NUM_DWORD                         
NUM_FSR                           
NUM_SFR                           
NUM_WORD                          
NUM_WREG                          
NX@LB3                            00000078
NX@LB76                           000005C5
NX@LB82                           000005F0
OERR                              00000001
OPTION_REG                        00000081
OSCF                              00000003
PB@LB84                           000005F1
PB@LB85                           000005F2
PBP#VAR0                          00000023
PBP#VAR1                          00000024
PBP#VAR2                          00000025
PBP#VAR3                          00000026
PBP#VAR4                          00000027
PBP#VAR5                          00000028
PBP#VAR6                          00000029
PCL                               00000002
PCLATH                            0000000A
PCON                              0000008E
PDESTINATION@PAGE                 00000000
PEIE                              INTCON,6
PIE1                              0000008C
PIR1                              0000000C
PORTA                             00000005
PORTB                             00000006
PORTDURUM                         0000003A
POSITION                          00000038
PP0                               0000002A
PP0H                              0000002B
PP1                               0000002C
PP1H                              0000002D
PP3                               0000002E
PP3H                              0000002F
PP6                               00000030
PP6H                              00000031
PP7                               00000032
PP7H                              00000033
PP8                               00000034
PP8H                              00000035
PP_CREN                           00000004
PP_OERR                           00000001
PP_RCIF                           00000005
PP_RD                             00000000
PP_T2CKPS0                        00000000
PP_T2CKPS1                        00000001
PP_TMR2ON                         00000002
PP_TXIF                           00000004
PP_WR                             00000001
PP_WREN                           00000002
PP_WRERR                          00000003
PR2                               00000092
PROTON#CODE#START                 00000000
PROTON#MAIN#START                 00000057
PS0                               00000000
PS1                               00000001
PS2                               00000002
PSA                               00000003
PUT@ARRAY                         0000004F
PUT@ARRAYW                        00000050
PWRTE_OFF                         00003FFF
PWRTE_ON                          00003FF7
R@B                               
RAM_BANK                          00000000
RAM_BANKS                         3
RBIE                              INTCON,3
RBIF                              INTCON,0
RCIE                              00000005
RCIF                              00000005
RCREG                             0000001A
RCSTA                             00000018
RC_OSC_CLKOUT                     00003FFF
RC_OSC_NOCLKOUT                   00003FFE
RD                                00000000
RESVALUE                          000000D2
RP0                               00000005
RP1                               00000006
RX9                               00000006
RX9D                              00000000
S@B                               
SATIR                             0000003C
SATIR#0                           0000003C
SATIR#1                           0000003D
SATIR#10                          00000046
SATIR#11                          00000047
SATIR#12                          00000048
SATIR#13                          00000049
SATIR#14                          0000004A
SATIR#15                          0000004B
SATIR#2                           0000003E
SATIR#3                           0000003F
SATIR#4                           00000040
SATIR#5                           00000041
SATIR#6                           00000042
SATIR#7                           00000043
SATIR#8                           00000044
SATIR#9                           00000045
SATIRGONDER                       000005D4
SAY                               000000C9
SCL                               PORTA,3
SDA                               PORTA,4
SEGMENTS                          000000CA
SEGMENTS#0                        000000CA
SEGMENTS#1                        000000CB
SEGMENTS#2                        000000CC
SEGMENTS#3                        000000CD
SEGMENTS#4                        000000CE
SEGMENTS#5                        000000CF
SEGMENTS#6                        000000D0
SET@PAGE                          
SPBRG                             00000099
SPEN                              00000007
SREN                              00000005
SSAVE                             0000007E
STATUS                            00000003
SYNC                              00000004
T0CS                              00000005
T0IE                              INTCON,5
T0IF                              INTCON,2
T0SE                              00000004
T1CKPS0                           00000004
T1CKPS1                           00000005
T1CON                             00000010
T1OSCEN                           00000003
T2CKPS0                           00000000
T2CKPS1                           00000001
T2CON                             00000012
TMR0                              00000001
TMR1CS                            00000001
TMR1H                             0000000F
TMR1IE                            00000000
TMR1IF                            00000000
TMR1L                             0000000E
TMR1LH                            0000000F
TMR1ON                            00000000
TMR2                              00000011
TMR2IE                            00000001
TMR2IF                            00000001
TMR2ON                            00000002
TOUTPS0                           00000003
TOUTPS1                           00000004
TOUTPS2                           00000005
TOUTPS3                           00000006
TRISA                             00000085
TRISB                             00000086
TRMT                              00000001
TX9                               00000006
TX9D                              00000000
TXEN                              00000005
TXIE                              00000004
TXIF                              00000004
TXREG                             00000019
TXSTA                             00000098
VR0                               00000000
VR1                               00000001
VR2                               00000002
VR3                               00000003
VRCON                             0000009F
VREN                              00000007
VROE                              00000006
VRR                               00000005
WDTE_OFF                          00003FFB
WDTE_ON                           00003FFF
WDT_OFF                           00003FFB
WDT_ON                            00003FFF
WORD_BIT                          
WORD_BYTE                         
WORD_DWORD                        
WORD_SDWORD                       
WORD_WORD                         
WORD_WREG                         
WR                                00000001
WREG_BIT                          
WREG_BYTE                         
WREG_DWORD                        
WREG_SDWORD                       
WREG_SWORD                        
WREG_WORD                         
WREN                              00000002
WRERR                             00000003
WSAVE                             0000007F
XTAL                              4
XT_OSC                            00003FED
Z                                 00000002
_ADC                              0
_ADC_RES                          0
_BANKS                            3
_CORE                             14
_CWRITE_BLOCK                     0
_EEPROM                           128
_FLASH                            0
_HIGH__CONTEXT_STORE              000000DF
_HIGH__CONTEXT_STORE#0            000000DF
_HIGH__CONTEXT_STORE#1            000000E0
_HIGH__CONTEXT_STORE#2            000000E1
_HIGH__CONTEXT_STORE#3            000000E2
_HIGH__CONTEXT_STORE#4            000000E3
_HIGH__CONTEXT_STORE#5            000000E4
_MAXMEM                           2048
_MAXRAM                           224
_PAGES                            1
_RAM_END                          0X00E0
_SYSTEM_VARIABLE_COUNT            22
_USART                            1
_USB                              0
__16F628A                         1
__DELAY_MS_                       00000029
__DELAY_MS_W_                     0000002A
__DELAY_US_                       00000036
__DELAY_US_W_                     00000037
__EOF                             000005F3
__INTERRUPTS_ENABLED              1
__XTAL                            4


MEMORY USAGE MAP ('X' = USED,  '-' = UNUSED)

0000 : X---XXXXXXXXXXXX XXXXXXXXXXXXXXXX XXXXXXXXXXXXXXXX XXXXXXXXXXXXXXXX
0040 : XXXXXXXXXXXXXXXX XXXXXXXXXXXXXXXX XXXXXXXXXXXXXXXX XXXXXXXXXXXXXXXX
0080 : XXXXXXXXXXXXXXXX XXXXXXXXXXXXXXXX XXXXXXXXXXXXXXXX XXXXXXXXXXXXXXXX
00C0 : XXXXXXXXXXXXXXXX XXXXXXXXXXXXXXXX XXXXXXXXXXXXXXXX XXXXXXXXXXXXXXXX
0100 : XXXXXXXXXXXXXXXX XXXXXXXXXXXXXXXX XXXXXXXXXXXXXXXX XXXXXXXXXXXXXXXX
0140 : XXXXXXXXXXXXXXXX XXXXXXXXXXXXXXXX XXXXXXXXXXXXXXXX XXXXXXXXXXXXXXXX
0180 : XXXXXXXXXXXXXXXX XXXXXXXXXXXXXXXX XXXXXXXXXXXXXXXX XXXXXXXXXXXXXXXX
01C0 : XXXXXXXXXXXXXXXX XXXXXXXXXXXXXXXX XXXXXXXXXXXXXXXX XXXXXXXXXXXXXXXX
0200 : XXXXXXXXXXXXXXXX XXXXXXXXXXXXXXXX XXXXXXXXXXXXXXXX XXXXXXXXXXXXXXXX
0240 : XXXXXXXXXXXXXXXX XXXXXXXXXXXXXXXX XXXXXXXXXXXXXXXX XXXXXXXXXXXXXXXX
0280 : XXXXXXXXXXXXXXXX XXXXXXXXXXXXXXXX XXXXXXXXXXXXXXXX XXXXXXXXXXXXXXXX
02C0 : XXXXXXXXXXXXXXXX XXXXXXXXXXXXXXXX XXXXXXXXXXXXXXXX XXXXXXXXXXXXXXXX
0300 : XXXXXXXXXXXXXXXX XXXXXXXXXXXXXXXX XXXXXXXXXXXXXXXX XXXXXXXXXXXXXXXX
0340 : XXXXXXXXXXXXXXXX XXXXXXXXXXXXXXXX XXXXXXXXXXXXXXXX XXXXXXXXXXXXXXXX
0380 : XXXXXXXXXXXXXXXX XXXXXXXXXXXXXXXX XXXXXXXXXXXXXXXX XXXXXXXXXXXXXXXX
03C0 : XXXXXXXXXXXXXXXX XXXXXXXXXXXXXXXX XXXXXXXXXXXXXXXX XXXXXXXXXXXXXXXX
0400 : XXXXXXXXXXXXXXXX XXXXXXXXXXXXXXXX XXXXXXXXXXXXXXXX XXXXXXXXXXXXXXXX
0440 : XXXXXXXXXXXXXXXX XXXXXXXXXXXXXXXX XXXXXXXXXXXXXXXX XXXXXXXXXXXXXXXX
0480 : XXXXXXXXXXXXXXXX XXXXXXXXXXXXXXXX XXXXXXXXXXXXXXXX XXXXXXXXXXXXXXXX
04C0 : XXXXXXXXXXXXXXXX XXXXXXXXXXXXXXXX XXXXXXXXXXXXXXXX XXXXXXXXXXXXXXXX
0500 : XXXXXXXXXXXXXXXX XXXXXXXXXXXXXXXX XXXXXXXXXXXXXXXX XXXXXXXXXXXXXXXX
0540 : XXXXXXXXXXXXXXXX XXXXXXXXXXXXXXXX XXXXXXXXXXXXXXXX XXXXXXXXXXXXXXXX
0580 : XXXXXXXXXXXXXXXX XXXXXXXXXXXXXXXX XXXXXXXXXXXXXXXX XXXXXXXXXXXXXXXX
05C0 : XXXXXXXXXXXXXXXX XXXXXXXXXXXXXXXX XXXXXXXXXXXXXXXX XXX-------------
2000 : -------X-------- ---------------- ---------------- ----------------

ALL OTHER MEMORY BLOCKS UNUSED.

PROGRAM MEMORY WORDS USED:  1520
PROGRAM MEMORY WORDS FREE:   528


ERRORS   :     0
WARNINGS :     0 REPORTED,    44 SUPPRESSED
MESSAGES :     1 REPORTED,   206 SUPPRESSED


